Certificate:
    Data:
        Version: 3 (0x2)
        Serial Number: 171 (0xab)
        Signature Algorithm: sha1WithRSAEncryption
        Issuer: C=BA, ST=RS, L=Banja Luka, O=Elektrotehnicki fakultet, OU=ETF, CN=CA/emailAddress=CA@ETF.COM
        Validity
            Not Before: Jan 23 11:54:56 2026 GMT
            Not After : Jan 23 11:54:56 2028 GMT
        Subject: C=BA, ST=RS, O=Elektrotehnicki fakultet, OU=ETF, CN=S1`/emailAddress=S1
        Subject Public Key Info:
            Public Key Algorithm: rsaEncryption
                Public-Key: (2048 bit)
                Modulus:
                    00:c2:81:78:6f:80:53:87:87:a6:5f:5f:d4:ab:b1:
                    60:4e:cd:29:01:9f:a6:0a:20:55:c2:4c:8f:6f:51:
                    b9:49:9a:54:2e:a8:48:ba:0d:d3:61:d0:be:4b:73:
                    25:71:73:37:ee:b6:b1:62:e4:a4:1e:1c:0a:a0:4a:
                    3a:9e:af:4b:bd:17:b4:52:25:44:e4:37:50:26:b5:
                    55:2a:0b:0f:58:33:30:57:24:e9:42:43:b9:2d:d2:
                    98:84:11:fc:b5:74:c9:7a:d6:8b:9b:8d:47:cd:58:
                    82:61:9f:2e:ef:a3:32:96:ef:2b:14:7d:06:b6:ef:
                    e3:63:0a:eb:30:11:22:f1:e8:df:4a:82:9c:90:67:
                    d2:91:43:97:02:83:7d:4f:f7:83:49:c8:18:95:31:
                    75:45:a8:e0:91:fc:61:65:ee:90:dc:18:1d:cf:36:
                    60:60:96:fe:1b:d2:46:16:f4:f7:db:e5:d8:0f:d5:
                    18:43:52:59:45:4c:6e:a2:62:14:86:20:d7:92:67:
                    98:b0:72:6d:59:41:ea:1e:1f:a1:1d:0f:83:d7:0f:
                    ae:f8:4f:9e:a0:46:34:ea:f8:56:1a:b3:cb:14:9a:
                    62:5c:37:c1:f5:5d:53:2d:6f:d6:ef:cf:1d:1f:2e:
                    61:c5:ab:eb:0e:f4:76:d8:38:7d:74:22:42:38:28:
                    f8:ff
                Exponent: 65537 (0x10001)
        X509v3 extensions:
            X509v3 Basic Constraints: 
                CA:FALSE
            X509v3 Key Usage: 
                Digital Signature, Non Repudiation
            Netscape Comment: 
                OpenSSL Generated Certificate
            X509v3 Subject Key Identifier: 
                B5:92:5B:2C:1A:8F:92:D9:B1:A1:C8:C1:D4:3D:A2:EE:AA:52:AD:74
            X509v3 Authority Key Identifier: 
                5E:4C:D8:84:68:23:66:E0:17:BE:03:8D:03:E9:11:6F:89:58:FC:97
            X509v3 CRL Distribution Points: 
                Full Name:
                  URI:http://192.168.21.89/rootcrl.pem
    Signature Algorithm: sha1WithRSAEncryption
    Signature Value:
        11:6b:d1:67:66:56:e5:8a:6e:36:3d:a1:48:bd:7a:2e:28:8b:
        a7:df:61:66:ff:55:45:f6:b9:68:be:23:62:58:ea:82:22:a6:
        a7:11:20:7c:71:f9:e7:6a:33:a0:ab:87:10:38:c1:27:21:38:
        da:34:40:41:a2:2c:a8:ab:0f:30:3b:86:8a:98:0a:5f:80:e3:
        40:69:de:9d:c5:80:d9:6b:f5:e2:a2:d8:ae:6b:9f:e4:30:51:
        13:9f:71:58:6c:6f:45:64:72:3f:f7:02:f8:76:be:8a:27:0e:
        c3:74:e2:bf:cb:aa:9e:27:f0:82:28:2e:62:8f:85:bb:20:9a:
        cf:b9:44:74:3c:22:77:54:b1:2f:7d:0c:e4:36:21:0c:7f:70:
        2b:35:84:cd:ef:11:ec:be:b9:f0:22:e2:4a:2e:3a:2d:64:0d:
        8a:12:36:b7:39:a4:e2:18:65:13:5b:9b:a7:b9:86:b6:d2:ab:
        fa:9e:a3:b8:46:18:01:b0:a6:9a:73:5f:66:9f:b9:ca:b1:a8:
        98:1f:0f:a3:60:65:ae:b4:16:b1:9a:65:1b:fd:71:e8:87:ac:
        f8:fc:6e:10:7f:7b:08:bb:be:37:a8:a0:79:5b:89:89:1a:5d:
        77:ec:82:21:a2:55:d0:59:d4:2d:f2:f6:60:0f:cf:dd:a9:11:
        de:7b:d1:c9:5d:0b:f4:e5:7e:d6:a4:4b:ad:98:a2:94:88:f7:
        43:7a:8b:58:bd:14:d0:b2:ba:af:5a:81:c9:48:72:ab:69:2f:
        13:7a:ac:cf:be:0a:4b:47:0f:9b:d3:ec:82:ba:3f:a9:b4:f1:
        6a:37:a9:16:c3:9f:c0:f5:8f:a6:bf:8a:08:03:7a:e7:ba:76:
        cc:e9:23:2c:90:31:47:72:9c:a1:a4:04:7d:fe:8b:30:5a:a8:
        0e:86:64:8f:65:f3:b4:56:ff:77:65:21:f4:7a:c6:d7:40:65:
        c7:58:76:38:c4:ae:48:6b:96:86:1c:b0:bc:ed:99:d2:df:68:
        e2:ef:85:bc:17:cc:4b:ac:68:28:ff:9c:55:4a:12:7c:67:87:
        7e:cd:c3:07:9b:54:49:60:22:91:56:6f:26:e6:c4:a2:3f:38:
        50:59:46:f4:c1:d3:0a:49:c2:ae:e1:ac:f6:08:b4:17:55:a3:
        38:80:4c:aa:10:f5:34:92:2c:84:38:3b:b4:13:5e:02:76:49:
        64:34:1e:b9:e4:81:73:64:76:d5:59:9a:a1:34:41:de:d1:8b:
        52:4a:01:a1:74:4d:e6:71:b6:9f:02:1f:1d:cb:19:c0:f9:9e:
        d7:7f:07:10:17:80:7b:59:a3:46:30:f0:2b:76:48:f9:b9:c3:
        42:23:a8:2e:8e:b1:56:5d
-----BEGIN CERTIFICATE-----
MIIFLjCCAxagAwIBAgICAKswDQYJKoZIhvcNAQEFBQAwgYgxCzAJBgNVBAYTAkJB
MQswCQYDVQQIEwJSUzETMBEGA1UEBxMKQmFuamEgTHVrYTEhMB8GA1UEChMYRWxl
a3Ryb3RlaG5pY2tpIGZha3VsdGV0MQwwCgYDVQQLEwNFVEYxCzAJBgNVBAMTAkNB
MRkwFwYJKoZIhvcNAQkBFgpDQUBFVEYuQ09NMB4XDTI2MDEyMzExNTQ1NloXDTI4
MDEyMzExNTQ1NlowbDELMAkGA1UEBhMCQkExCzAJBgNVBAgTAlJTMSEwHwYDVQQK
ExhFbGVrdHJvdGVobmlja2kgZmFrdWx0ZXQxDDAKBgNVBAsTA0VURjEMMAoGA1UE
AxQDUzFgMREwDwYJKoZIhvcNAQkBFgJTMTCCASIwDQYJKoZIhvcNAQEBBQADggEP
ADCCAQoCggEBAMKBeG+AU4eHpl9f1KuxYE7NKQGfpgogVcJMj29RuUmaVC6oSLoN
02HQvktzJXFzN+62sWLkpB4cCqBKOp6vS70XtFIlROQ3UCa1VSoLD1gzMFck6UJD
uS3SmIQR/LV0yXrWi5uNR81YgmGfLu+jMpbvKxR9Brbv42MK6zARIvHo30qCnJBn
0pFDlwKDfU/3g0nIGJUxdUWo4JH8YWXukNwYHc82YGCW/hvSRhb099vl2A/VGENS
WUVMbqJiFIYg15JnmLBybVlB6h4foR0Pg9cPrvhPnqBGNOr4VhqzyxSaYlw3wfVd
Uy1v1u/PHR8uYcWr6w70dtg4fXQiQjgo+P8CAwEAAaOBvDCBuTAJBgNVHRMEAjAA
MAsGA1UdDwQEAwIGwDAsBglghkgBhvhCAQ0EHxYdT3BlblNTTCBHZW5lcmF0ZWQg
Q2VydGlmaWNhdGUwHQYDVR0OBBYEFLWSWywaj5LZsaHIwdQ9ou6qUq10MB8GA1Ud
IwQYMBaAFF5M2IRoI2bgF74DjQPpEW+JWPyXMDEGA1UdHwQqMCgwJqAkoCKGIGh0
dHA6Ly8xOTIuMTY4LjIxLjg5L3Jvb3RjcmwucGVtMA0GCSqGSIb3DQEBBQUAA4IC
AQARa9FnZlblim42PaFIvXouKIun32Fm/1VF9rloviNiWOqCIqanESB8cfnnajOg
q4cQOMEnITjaNEBBoiyoqw8wO4aKmApfgONAad6dxYDZa/Xiotiua5/kMFETn3FY
bG9FZHI/9wL4dr6KJw7DdOK/y6qeJ/CCKC5ij4W7IJrPuUR0PCJ3VLEvfQzkNiEM
f3ArNYTN7xHsvrnwIuJKLjotZA2KEja3OaTiGGUTW5unuYa20qv6nqO4RhgBsKaa
c19mn7nKsaiYHw+jYGWutBaxmmUb/XHoh6z4/G4Qf3sIu743qKB5W4mJGl137IIh
olXQWdQt8vZgD8/dqRHee9HJXQv05X7WpEutmKKUiPdDeotYvRTQsrqvWoHJSHKr
aS8TeqzPvgpLRw+b0+yCuj+ptPFqN6kWw5/A9Y+mv4oIA3rnunbM6SMskDFHcpyh
pAR9/oswWqgOhmSPZfO0Vv93ZSH0esbXQGXHWHY4xK5Ia5aGHLC87ZnS32ji74W8
F8xLrGgo/5xVShJ8Z4d+zcMHm1RJYCKRVm8m5sSiPzhQWUb0wdMKScKu4az2CLQX
VaM4gEyqEPU0kiyEODu0E14CdklkNB655IFzZHbVWZqhNEHe0YtSSgGhdE3mcbaf
Ah8dyxnA+Z7XfwcQF4B7WaNGMPArdkj5ucNCI6gujrFWXQ==
-----END CERTIFICATE-----
