Certificate:
    Data:
        Version: 3 (0x2)
        Serial Number: 1 (0x1)
        Signature Algorithm: sha1WithRSAEncryption
        Issuer: C=BA, ST=RS, L=Banja Luka, O=Elektrotehnicki fakultet, OU=ETF, CN=CA
        Validity
            Not Before: Sep 13 06:42:51 2023 GMT
            Not After : Sep 10 06:42:51 2033 GMT
        Subject: C=BA, ST=RS, O=Elektrotehnicki fakultet, OU=ETF, CN=Server/emailAddress=server@mail.com
        Subject Public Key Info:
            Public Key Algorithm: rsaEncryption
                RSA Public-Key: (4096 bit)
                Modulus:
                    00:bb:10:4f:d1:eb:67:73:91:4e:61:b5:f9:f4:d1:
                    95:19:37:93:78:a4:f1:03:95:91:b2:cf:45:f8:8e:
                    5c:a0:b0:db:fa:f7:ad:69:fe:9e:71:c8:6a:f7:9a:
                    93:c5:2e:e6:ba:49:c1:f8:10:8a:1f:f5:a6:b0:28:
                    5a:82:72:3b:73:63:e2:39:5b:1f:9c:1e:aa:c5:f1:
                    51:14:5c:7f:fb:76:c6:f8:85:f9:23:22:f8:cd:e8:
                    81:59:c2:d9:f1:9d:6b:13:47:43:16:bc:d9:89:6c:
                    79:1f:22:9b:bc:5e:05:2d:89:29:d9:ea:17:ba:cf:
                    e2:ad:67:e0:c0:31:89:1c:ac:ff:fa:6f:e2:ca:da:
                    95:74:71:4b:31:f2:cd:29:d2:50:ec:63:38:62:76:
                    a8:b7:b2:fa:88:49:4a:5b:cd:1d:45:f8:e7:46:2e:
                    e0:a2:8b:76:f6:e0:54:ae:28:58:ec:41:b7:0a:10:
                    2e:c0:42:5a:02:8e:48:3b:4a:8f:8f:f8:47:ff:14:
                    de:15:0a:d6:db:4a:d8:9d:ac:a0:2f:37:b2:17:9d:
                    52:c1:77:59:0f:db:2b:52:9e:6b:d4:47:b5:8e:48:
                    9a:94:fe:26:f5:70:f7:9f:a7:57:c2:c0:24:0b:8c:
                    25:47:18:aa:c1:08:8c:ea:49:ff:c8:83:0e:02:f8:
                    50:7a:57:26:62:bc:21:0b:19:1f:38:76:1b:c3:cd:
                    25:f3:08:39:0a:f5:16:06:81:c3:f1:d3:52:f2:5d:
                    ff:72:6a:7f:1d:61:1f:00:9e:5f:0d:39:cb:1b:d3:
                    4f:a4:0c:3e:41:97:eb:1d:7e:a4:fd:72:bd:a2:7c:
                    6e:34:b6:d7:8b:29:9b:cd:ca:ce:b5:29:4b:6b:75:
                    2e:13:9b:e9:45:af:6a:3c:b4:a4:5d:6b:51:f7:78:
                    3c:32:37:74:05:b5:bf:c1:6d:28:9e:c3:b1:63:5a:
                    61:ad:8a:af:d6:76:7e:75:6b:87:1f:27:5e:fc:50:
                    de:7f:44:27:56:da:3b:fb:6c:4d:d2:58:98:62:ea:
                    65:60:4d:4e:79:15:61:30:dc:fd:87:59:af:d6:f1:
                    b1:f9:77:39:55:cd:1e:d3:64:a5:4c:0c:02:58:70:
                    41:86:35:bf:9a:87:b7:70:9b:79:51:7b:d0:0a:0d:
                    93:57:49:12:6f:a2:f8:c3:ca:ee:f8:5e:ba:c8:d2:
                    1e:1f:32:d4:c1:48:f2:76:62:ab:d4:a3:af:d2:c3:
                    be:33:20:b1:0b:d5:6a:7e:54:cf:81:96:28:34:b4:
                    8d:dc:d7:d9:1b:e5:4f:9a:99:a6:5a:20:1d:67:06:
                    f9:73:03:b6:11:f9:69:fc:00:a6:d8:10:d8:6d:cf:
                    53:d3:a3
                Exponent: 65537 (0x10001)
        X509v3 extensions:
            X509v3 Basic Constraints: 
                CA:FALSE
            X509v3 Key Usage: 
                Digital Signature
            X509v3 Extended Key Usage: 
                TLS Web Client Authentication, TLS Web Server Authentication
            Netscape Comment: 
                OpenSSL Generated Certificate
            X509v3 Subject Key Identifier: 
                64:7D:F4:39:89:B3:78:2E:71:75:BE:54:66:AA:DB:5A:86:E9:1F:B0
            X509v3 Authority Key Identifier: 
                keyid:81:0B:F2:CA:44:87:7C:52:A4:DD:EF:A6:A4:7B:BD:4C:7A:B8:9C:45

            X509v3 CRL Distribution Points: 

                Full Name:
                  URI:http://192.168.21.89/rootcrl.pem

    Signature Algorithm: sha1WithRSAEncryption
         52:45:73:e8:4a:ca:d5:65:43:4c:ac:3f:b8:ff:1d:f0:14:50:
         30:d8:34:1c:28:c6:85:4a:c7:10:df:84:05:72:8e:1f:9a:52:
         ac:b0:72:da:9a:be:72:70:66:6d:87:d3:5e:ac:5a:cf:a6:03:
         c3:30:64:30:be:bb:6a:eb:f4:79:06:e7:30:42:c5:9b:2c:26:
         fb:42:2b:3d:19:fe:2e:6b:00:ea:4f:0b:7f:38:9c:be:ec:4a:
         02:c5:65:90:57:82:48:a0:3e:76:6c:cc:b2:f7:fc:0c:21:cc:
         8c:9f:7b:08:b4:93:44:b6:99:fd:49:f9:3f:df:67:98:13:ab:
         8e:4b:d9:d8:84:e7:f1:4f:f5:f7:6c:c2:d2:8f:0f:0b:15:40:
         42:e7:57:77:cd:54:ac:bc:0a:be:48:c8:dd:26:56:f2:b2:98:
         0d:99:63:b8:30:6b:d5:86:b3:4c:46:bc:d3:c8:83:5c:d0:9c:
         ca:80:17:9c:2b:6c:d3:a7:18:04:b5:9d:53:d5:b7:42:13:8e:
         2b:d3:51:32:bc:11:ea:e5:0b:43:a2:1b:e4:8f:82:86:21:cb:
         99:c9:21:7e:cc:7c:14:7d:84:5f:ab:11:c7:23:b3:52:2f:9a:
         16:f8:36:44:8c:ba:b9:47:74:98:94:43:30:c5:69:99:0a:25:
         be:5d:90:6e:ae:43:a9:f9:03:dc:63:0a:25:9f:ff:35:c0:ac:
         90:4b:39:af:0d:a7:b4:b4:7c:0f:42:c1:7d:38:28:7d:02:8d:
         5e:8a:1d:ec:3f:ba:29:fe:24:f6:9d:00:a0:65:f7:7e:a2:ac:
         36:0b:8e:01:d8:35:b8:89:af:29:36:a2:2c:df:f1:e3:a6:df:
         f2:51:f4:e4:14:06:fa:40:ce:a9:01:37:57:d4:31:28:7e:db:
         ab:4f:9f:b8:eb:02:44:20:c9:00:39:34:65:dc:62:19:52:83:
         77:4e:f7:3f:87:c9:dc:b9:84:ed:76:4f:6a:09:19:88:7b:94:
         36:26:8f:d0:7a:03:9e:09:bd:80:f5:b7:45:05:be:85:c2:ab:
         a6:39:07:bf:e9:f9:1a:b9:d2:a6:69:c7:ac:c1:b7:cf:2b:03:
         80:40:73:b4:98:fb:e3:09:a9:69:4a:9e:9f:70:a0:a7:7c:e1:
         68:d1:dd:d2:b6:80:4b:32:a0:b7:c8:42:fe:ed:e7:51:74:e1:
         c6:5b:18:be:25:97:0e:f0:d7:d8:e8:b5:5f:4f:9d:9a:3b:79:
         0e:c4:ff:31:40:a7:d7:e3:c5:c3:02:63:fb:63:e0:88:27:68:
         f6:20:ad:92:0e:d7:28:07:cf:61:0f:68:51:e5:14:f6:47:31:
         88:b7:aa:c5:8a:67:a1:03
-----BEGIN CERTIFICATE-----
MIIGQDCCBCigAwIBAgIBATANBgkqhkiG9w0BAQUFADBtMQswCQYDVQQGEwJCQTEL
MAkGA1UECBMCUlMxEzARBgNVBAcTCkJhbmphIEx1a2ExITAfBgNVBAoTGEVsZWt0
cm90ZWhuaWNraSBmYWt1bHRldDEMMAoGA1UECxMDRVRGMQswCQYDVQQDEwJDQTAe
Fw0yMzA5MTMwNjQyNTFaFw0zMzA5MTAwNjQyNTFaMHwxCzAJBgNVBAYTAkJBMQsw
CQYDVQQIEwJSUzEhMB8GA1UEChMYRWxla3Ryb3RlaG5pY2tpIGZha3VsdGV0MQww
CgYDVQQLEwNFVEYxDzANBgNVBAMTBlNlcnZlcjEeMBwGCSqGSIb3DQEJARYPc2Vy
dmVyQG1haWwuY29tMIICIjANBgkqhkiG9w0BAQEFAAOCAg8AMIICCgKCAgEAuxBP
0etnc5FOYbX59NGVGTeTeKTxA5WRss9F+I5coLDb+vetaf6ecchq95qTxS7muknB
+BCKH/WmsChagnI7c2PiOVsfnB6qxfFRFFx/+3bG+IX5IyL4zeiBWcLZ8Z1rE0dD
FrzZiWx5HyKbvF4FLYkp2eoXus/irWfgwDGJHKz/+m/iytqVdHFLMfLNKdJQ7GM4
Ynaot7L6iElKW80dRfjnRi7goot29uBUrihY7EG3ChAuwEJaAo5IO0qPj/hH/xTe
FQrW20rYnaygLzeyF51SwXdZD9srUp5r1Ee1jkialP4m9XD3n6dXwsAkC4wlRxiq
wQiM6kn/yIMOAvhQelcmYrwhCxkfOHYbw80l8wg5CvUWBoHD8dNS8l3/cmp/HWEf
AJ5fDTnLG9NPpAw+QZfrHX6k/XK9onxuNLbXiymbzcrOtSlLa3UuE5vpRa9qPLSk
XWtR93g8Mjd0BbW/wW0onsOxY1phrYqv1nZ+dWuHHyde/FDef0QnVto7+2xN0liY
YuplYE1OeRVhMNz9h1mv1vGx+Xc5Vc0e02SlTAwCWHBBhjW/moe3cJt5UXvQCg2T
V0kSb6L4w8ru+F66yNIeHzLUwUjydmKr1KOv0sO+MyCxC9VqflTPgZYoNLSN3NfZ
G+VPmpmmWiAdZwb5cwO2Eflp/ACm2BDYbc9T06MCAwEAAaOB2zCB2DAJBgNVHRME
AjAAMAsGA1UdDwQEAwIHgDAdBgNVHSUEFjAUBggrBgEFBQcDAgYIKwYBBQUHAwEw
LAYJYIZIAYb4QgENBB8WHU9wZW5TU0wgR2VuZXJhdGVkIENlcnRpZmljYXRlMB0G
A1UdDgQWBBRkffQ5ibN4LnF1vlRmqttahukfsDAfBgNVHSMEGDAWgBSBC/LKRId8
UqTd76ake71MericRTAxBgNVHR8EKjAoMCagJKAihiBodHRwOi8vMTkyLjE2OC4y
MS44OS9yb290Y3JsLnBlbTANBgkqhkiG9w0BAQUFAAOCAgEAUkVz6ErK1WVDTKw/
uP8d8BRQMNg0HCjGhUrHEN+EBXKOH5pSrLBy2pq+cnBmbYfTXqxaz6YDwzBkML67
auv0eQbnMELFmywm+0IrPRn+LmsA6k8LfzicvuxKAsVlkFeCSKA+dmzMsvf8DCHM
jJ97CLSTRLaZ/Un5P99nmBOrjkvZ2ITn8U/192zC0o8PCxVAQudXd81UrLwKvkjI
3SZW8rKYDZljuDBr1YazTEa808iDXNCcyoAXnCts06cYBLWdU9W3QhOOK9NRMrwR
6uULQ6Ib5I+ChiHLmckhfsx8FH2EX6sRxyOzUi+aFvg2RIy6uUd0mJRDMMVpmQol
vl2Qbq5DqfkD3GMKJZ//NcCskEs5rw2ntLR8D0LBfTgofQKNXood7D+6Kf4k9p0A
oGX3fqKsNguOAdg1uImvKTaiLN/x46bf8lH05BQG+kDOqQE3V9QxKH7bq0+fuOsC
RCDJADk0ZdxiGVKDd073P4fJ3LmE7XZPagkZiHuUNiaP0HoDngm9gPW3RQW+hcKr
pjkHv+n5GrnSpmnHrMG3zysDgEBztJj74wmpaUqen3Cgp3zhaNHd0raASzKgt8hC
/u3nUXThxlsYviWXDvDX2Oi1X0+dmjt5DsT/MUCn1+PFwwJj+2PgiCdo9iCtkg7X
KAfPYQ9oUeUU9kcxiLeqxYpnoQM=
-----END CERTIFICATE-----
