Certificate:
    Data:
        Version: 3 (0x2)
        Serial Number: 1 (0x1)
        Signature Algorithm: sha1WithRSAEncryption
        Issuer: C=BA, ST=RS, L=Banja Luka, O=Elektrotehnicki fakultet, OU=ETF, CN=CA tijelo/emailAddress=ca@etf.unibl.org
        Validity
            Not Before: Dec 21 09:45:40 2023 GMT
            Not After : Mar 20 09:45:40 2024 GMT
        Subject: C=BA, ST=RS, O=Elektrotehnicki fakultet, OU=ETF, CN=Marko Markovic/emailAddress=marko@mail.com
        Subject Public Key Info:
            Public Key Algorithm: rsaEncryption
                Public-Key: (2048 bit)
                Modulus:
                    00:c0:3d:87:15:8b:19:2d:68:20:25:8d:71:d2:3b:
                    36:97:60:e8:b9:b1:b2:94:d8:0d:32:ef:27:56:b9:
                    e0:8e:37:c2:08:c1:c3:87:13:43:a6:45:01:b2:b0:
                    59:20:e5:a1:45:42:56:67:74:97:2a:c9:1d:8d:65:
                    98:84:52:ce:07:8a:f7:3f:58:9d:3f:11:6c:22:f5:
                    c0:6c:13:ff:5f:e7:60:2b:2c:6e:b0:01:d7:c8:a5:
                    5a:2f:e0:f0:69:09:22:18:d2:30:cd:43:e7:1b:f6:
                    ce:be:8b:1b:df:fb:4b:b0:e1:a2:85:1e:21:3f:9f:
                    83:23:e4:7f:62:59:6c:55:81:07:69:8c:81:1d:63:
                    39:85:46:86:07:67:dd:77:72:5d:35:ca:6e:ba:4c:
                    ba:40:44:c1:14:2e:83:f7:42:24:fa:4f:d9:b7:4c:
                    e0:f8:56:bc:4d:d8:41:f5:03:aa:3d:b4:f0:a5:ed:
                    5d:84:f9:4e:54:f0:7a:47:0c:d5:a9:5f:dc:17:8b:
                    ac:96:9e:de:dd:16:77:d9:ba:cd:6c:ee:1e:3a:cf:
                    b7:96:6d:cb:c5:f7:9b:0a:f5:b0:37:c7:aa:f1:31:
                    55:a4:d4:77:a5:d5:54:0a:09:af:7f:e5:49:b9:fa:
                    0f:62:cc:09:ae:e7:0b:fc:d1:00:0e:ed:50:fb:00:
                    ee:63
                Exponent: 65537 (0x10001)
        X509v3 extensions:
            X509v3 Basic Constraints: 
                CA:FALSE
            X509v3 Key Usage: 
                Digital Signature
            X509v3 Extended Key Usage: 
                TLS Web Client Authentication, TLS Web Server Authentication
            Netscape Comment: 
                OpenSSL Generated Certificate
            X509v3 Subject Key Identifier: 
                59:77:B7:9E:14:69:73:6A:D7:6E:25:AF:09:41:7B:2B:82:CF:53:1C
            X509v3 Authority Key Identifier: 
                81:0B:F2:CA:44:87:7C:52:A4:DD:EF:A6:A4:7B:BD:4C:7A:B8:9C:45
            X509v3 CRL Distribution Points: 
                Full Name:
                  URI:http://192.168.21.89/rootcrl.pem
    Signature Algorithm: sha1WithRSAEncryption
    Signature Value:
        19:f5:71:ac:3a:16:6c:4d:3d:31:12:f3:1d:16:c4:7b:80:12:
        c8:0d:bb:e9:0e:74:59:ae:ad:7f:0f:7a:56:bb:7a:90:5a:14:
        4d:32:c2:76:81:38:9a:39:ed:16:c2:9d:3f:a4:55:5f:a1:14:
        a6:99:0f:5f:bc:37:47:71:4d:2c:ab:20:c2:0d:f7:e4:5a:95:
        34:a3:c9:f3:cb:7f:e8:f6:d7:43:09:aa:85:26:70:a6:d6:63:
        74:44:43:d4:65:6f:e6:3d:01:92:16:ad:1c:fa:05:43:d0:fd:
        60:b9:62:9e:ad:5a:db:20:32:6e:27:e9:e7:49:d0:3f:71:47:
        01:47:8c:69:cf:e2:87:98:54:b1:bf:9c:ae:b4:4c:19:d5:8e:
        63:db:ae:00:9e:64:8c:72:50:b1:ad:32:4f:ec:33:6f:81:4f:
        e4:57:42:fc:33:0a:4a:ee:df:1b:58:d3:ef:e9:35:7f:86:3d:
        8a:18:d4:7d:dc:1a:a2:58:b9:ff:cd:c7:2e:85:38:02:e4:47:
        ed:4d:32:6c:44:79:6d:83:b2:e3:8f:82:82:ce:db:80:79:17:
        70:2a:38:10:1f:aa:31:05:27:3c:51:d0:2a:59:f4:ce:99:fe:
        d0:45:58:17:d7:fd:ca:ae:d8:b9:b9:ee:e4:41:d3:1e:c5:27:
        52:b7:c9:9b:42:2e:c2:99:e2:59:c0:e9:50:bc:43:07:90:af:
        77:05:87:1c:09:15:c8:13:6d:03:09:d1:0b:35:bc:58:58:a5:
        0f:a7:d5:f7:a4:d2:62:f8:3b:14:19:8b:e9:dd:47:c1:d1:8e:
        d7:75:e2:3c:25:ce:5f:5f:a8:0f:c0:c9:8d:4e:6f:d8:22:cb:
        5f:fb:52:35:c3:e5:f0:74:54:61:9d:80:b1:6d:7b:98:ea:0e:
        b7:00:c9:a9:0a:9a:3e:55:4f:ae:98:f6:94:f8:91:99:d8:b2:
        39:5f:34:4f:4e:9b:3f:97:28:fa:ec:1e:70:6e:05:3a:e3:33:
        05:f3:7d:b1:37:3b:6f:54:ea:d8:94:32:73:98:73:dc:d5:9c:
        1e:47:e5:d8:e7:c2:9c:ca:e6:c5:f7:10:75:2d:f3:6a:2a:27:
        22:ba:db:0e:70:10:e8:e7:92:12:1f:f8:c5:d3:80:ca:94:13:
        68:92:88:42:e4:8d:5b:ba:c7:26:d3:d7:f1:03:56:e3:f4:51:
        57:0b:cf:18:49:ff:0b:2e:c9:58:c2:02:60:6c:5e:7e:a5:62:
        18:6b:df:ec:01:b8:88:bb:30:a7:eb:17:90:c3:86:d9:d9:e9:
        d9:a2:80:2d:94:d6:4e:78:ca:fd:7a:fa:e3:ec:d8:f6:df:0f:
        dc:6e:54:bb:f2:f7:34:ff
-----BEGIN CERTIFICATE-----
MIIFcTCCA1mgAwIBAgIBATANBgkqhkiG9w0BAQUFADCBlTELMAkGA1UEBhMCQkEx
CzAJBgNVBAgTAlJTMRMwEQYDVQQHEwpCYW5qYSBMdWthMSEwHwYDVQQKExhFbGVr
dHJvdGVobmlja2kgZmFrdWx0ZXQxDDAKBgNVBAsTA0VURjESMBAGA1UEAxMJQ0Eg
dGlqZWxvMR8wHQYJKoZIhvcNAQkBFhBjYUBldGYudW5pYmwub3JnMB4XDTIzMTIy
MTA5NDU0MFoXDTI0MDMyMDA5NDU0MFowgYMxCzAJBgNVBAYTAkJBMQswCQYDVQQI
EwJSUzEhMB8GA1UEChMYRWxla3Ryb3RlaG5pY2tpIGZha3VsdGV0MQwwCgYDVQQL
EwNFVEYxFzAVBgNVBAMTDk1hcmtvIE1hcmtvdmljMR0wGwYJKoZIhvcNAQkBFg5t
YXJrb0BtYWlsLmNvbTCCASIwDQYJKoZIhvcNAQEBBQADggEPADCCAQoCggEBAMA9
hxWLGS1oICWNcdI7Npdg6LmxspTYDTLvJ1a54I43wgjBw4cTQ6ZFAbKwWSDloUVC
Vmd0lyrJHY1lmIRSzgeK9z9YnT8RbCL1wGwT/1/nYCssbrAB18ilWi/g8GkJIhjS
MM1D5xv2zr6LG9/7S7DhooUeIT+fgyPkf2JZbFWBB2mMgR1jOYVGhgdn3XdyXTXK
brpMukBEwRQug/dCJPpP2bdM4PhWvE3YQfUDqj208KXtXYT5TlTwekcM1alf3BeL
rJae3t0Wd9m6zWzuHjrPt5Zty8X3mwr1sDfHqvExVaTUd6XVVAoJr3/lSbn6D2LM
Ca7nC/zRAA7tUPsA7mMCAwEAAaOB2zCB2DAJBgNVHRMEAjAAMAsGA1UdDwQEAwIH
gDAdBgNVHSUEFjAUBggrBgEFBQcDAgYIKwYBBQUHAwEwLAYJYIZIAYb4QgENBB8W
HU9wZW5TU0wgR2VuZXJhdGVkIENlcnRpZmljYXRlMB0GA1UdDgQWBBRZd7eeFGlz
atduJa8JQXsrgs9THDAfBgNVHSMEGDAWgBSBC/LKRId8UqTd76ake71MericRTAx
BgNVHR8EKjAoMCagJKAihiBodHRwOi8vMTkyLjE2OC4yMS44OS9yb290Y3JsLnBl
bTANBgkqhkiG9w0BAQUFAAOCAgEAGfVxrDoWbE09MRLzHRbEe4ASyA276Q50Wa6t
fw96Vrt6kFoUTTLCdoE4mjntFsKdP6RVX6EUppkPX7w3R3FNLKsgwg335FqVNKPJ
88t/6PbXQwmqhSZwptZjdERD1GVv5j0BkhatHPoFQ9D9YLlinq1a2yAybifp50nQ
P3FHAUeMac/ih5hUsb+crrRMGdWOY9uuAJ5kjHJQsa0yT+wzb4FP5FdC/DMKSu7f
G1jT7+k1f4Y9ihjUfdwaoli5/83HLoU4AuRH7U0ybER5bYOy44+Cgs7bgHkXcCo4
EB+qMQUnPFHQKln0zpn+0EVYF9f9yq7Yubnu5EHTHsUnUrfJm0IuwpniWcDpULxD
B5CvdwWHHAkVyBNtAwnRCzW8WFilD6fV96TSYvg7FBmL6d1HwdGO13XiPCXOX1+o
D8DJjU5v2CLLX/tSNcPl8HRUYZ2AsW17mOoOtwDJqQqaPlVPrpj2lPiRmdiyOV80
T06bP5co+uwecG4FOuMzBfN9sTc7b1Tq2JQyc5hz3NWcHkfl2OfCnMrmxfcQdS3z
aionIrrbDnAQ6OeSEh/4xdOAypQTaJKIQuSNW7rHJtPX8QNW4/RRVwvPGEn/Cy7J
WMICYGxefqViGGvf7AG4iLswp+sXkMOG2dnp2aKALZTWTnjK/Xr64+zY9t8P3G5U
u/L3NP8=
-----END CERTIFICATE-----
