Certificate:
    Data:
        Version: 3 (0x2)
        Serial Number: 1 (0x1)
        Signature Algorithm: sha1WithRSAEncryption
        Issuer: C=BA, ST=RS, L=Banja Luka, O=Elektrotehnicki fakultet, OU=ETF, CN=CA/emailAddress=CA@gmail.com
        Validity
            Not Before: Jan 21 14:15:48 2026 GMT
            Not After : Jan 26 14:15:48 2026 GMT
        Subject: C=BA, ST=RS, O=Elektrotehnicki fakultet, OU=ETF, CN=Client`/emailAddress=client1@gmail.com
        Subject Public Key Info:
            Public Key Algorithm: rsaEncryption
                Public-Key: (2048 bit)
                Modulus:
                    00:a5:02:5e:9c:bc:59:47:ac:78:17:1f:46:98:2e:
                    58:fd:f1:a2:04:97:b4:d8:a9:02:22:02:93:18:bc:
                    b7:47:49:72:80:bc:97:c5:30:d6:ff:bc:3c:cc:25:
                    bf:99:1b:67:dc:fb:0f:5e:fd:b7:e0:28:6e:a1:90:
                    bf:27:a4:b2:11:4d:d7:87:90:67:21:ba:4f:15:19:
                    51:d9:41:95:67:09:5c:55:00:d0:9a:b9:c9:eb:1a:
                    f5:0b:3a:66:6c:5c:37:f9:3f:ae:59:19:38:7e:f4:
                    00:a6:61:3b:20:4d:f9:94:95:0c:9c:dd:48:72:0d:
                    25:94:65:ea:4a:5d:d0:2b:44:80:56:50:43:91:1d:
                    5a:67:0c:49:b1:37:d6:77:0c:d6:82:33:57:16:01:
                    51:28:ca:ec:7e:45:26:60:6e:e9:dc:6a:a7:f9:67:
                    77:3b:c2:25:21:2a:b2:a4:82:19:d1:23:5e:12:de:
                    d3:24:5c:1b:ab:e2:ba:c8:4c:6f:27:48:6b:9b:17:
                    0a:1b:28:78:0a:cc:cb:9d:47:a3:11:a9:de:6e:65:
                    34:76:38:be:ef:91:29:8d:5d:9e:60:2f:81:c3:15:
                    2e:2f:51:7e:6d:e6:70:ec:9a:23:51:da:33:0a:44:
                    de:70:6c:65:93:b7:1b:79:12:17:40:bd:22:78:35:
                    da:6b
                Exponent: 65537 (0x10001)
        X509v3 extensions:
            X509v3 Basic Constraints: 
                CA:FALSE
            X509v3 Key Usage: 
                Digital Signature
            X509v3 Extended Key Usage: 
                TLS Web Client Authentication
            Netscape Comment: 
                OpenSSL Generated Certificate
            X509v3 Subject Key Identifier: 
                44:28:2E:E9:B1:F4:92:61:85:EB:A0:44:99:DA:B4:52:B5:12:22:71
            X509v3 Authority Key Identifier: 
                BF:4C:63:6C:3E:9D:09:1B:6A:F8:69:25:BB:24:4A:1F:80:10:A6:98
            X509v3 CRL Distribution Points: 
                Full Name:
                  URI:http://192.168.21.89/rootcrl.pem
    Signature Algorithm: sha1WithRSAEncryption
    Signature Value:
        a8:48:ea:ee:95:4b:9b:22:52:c8:71:c7:fc:f4:f6:fd:8f:07:
        f1:9b:81:ac:63:74:6b:e7:54:13:32:43:ec:fd:e7:27:78:d9:
        cb:a1:90:58:79:d4:a0:5a:da:98:79:ba:fc:af:96:7f:9d:86:
        37:41:87:14:41:6f:5c:46:b7:de:bb:49:ae:20:3b:0a:62:d2:
        a5:8f:3c:69:2c:aa:78:c7:12:99:09:e1:7e:d1:9e:09:8f:61:
        c8:f0:51:ae:f2:2a:1d:3d:d1:a0:5c:7a:c2:34:4f:ae:90:58:
        43:df:68:21:64:a8:75:f9:57:3b:c9:64:d8:c9:9c:b1:d7:5e:
        27:47:cf:da:c8:e1:00:48:c6:80:23:ff:28:dd:6b:40:53:96:
        66:67:4b:66:d0:93:0d:60:74:0f:1f:c8:36:0e:a0:6e:1c:53:
        38:60:b1:e6:29:7f:0e:3b:50:a3:83:94:22:7e:9a:4c:c6:9d:
        38:a7:de:4a:08:12:e9:bc:b5:71:49:1a:e4:e6:d4:29:6d:91:
        3d:91:3c:7f:f9:a0:e2:66:58:ef:9a:f4:cd:8c:d4:38:be:9f:
        fa:9e:82:c5:23:85:08:ca:72:a7:b9:aa:ae:06:9d:b3:69:65:
        3d:af:6e:42:b8:d9:06:c8:77:dd:1c:de:1d:3c:ab:a0:e6:f3:
        fa:8b:4c:e9
-----BEGIN CERTIFICATE-----
MIIEVzCCAz+gAwIBAgIBATANBgkqhkiG9w0BAQUFADCBijELMAkGA1UEBhMCQkEx
CzAJBgNVBAgTAlJTMRMwEQYDVQQHEwpCYW5qYSBMdWthMSEwHwYDVQQKExhFbGVr
dHJvdGVobmlja2kgZmFrdWx0ZXQxDDAKBgNVBAsTA0VURjELMAkGA1UEAxMCQ0Ex
GzAZBgkqhkiG9w0BCQEWDENBQGdtYWlsLmNvbTAeFw0yNjAxMjExNDE1NDhaFw0y
NjAxMjYxNDE1NDhaMH8xCzAJBgNVBAYTAkJBMQswCQYDVQQIEwJSUzEhMB8GA1UE
ChMYRWxla3Ryb3RlaG5pY2tpIGZha3VsdGV0MQwwCgYDVQQLEwNFVEYxEDAOBgNV
BAMUB0NsaWVudGAxIDAeBgkqhkiG9w0BCQEWEWNsaWVudDFAZ21haWwuY29tMIIB
IjANBgkqhkiG9w0BAQEFAAOCAQ8AMIIBCgKCAQEApQJenLxZR6x4Fx9GmC5Y/fGi
BJe02KkCIgKTGLy3R0lygLyXxTDW/7w8zCW/mRtn3PsPXv234ChuoZC/J6SyEU3X
h5BnIbpPFRlR2UGVZwlcVQDQmrnJ6xr1CzpmbFw3+T+uWRk4fvQApmE7IE35lJUM
nN1Icg0llGXqSl3QK0SAVlBDkR1aZwxJsTfWdwzWgjNXFgFRKMrsfkUmYG7p3Gqn
+Wd3O8IlISqypIIZ0SNeEt7TJFwbq+K6yExvJ0hrmxcKGyh4CszLnUejEanebmU0
dji+75EpjV2eYC+BwxUuL1F+beZw7JojUdozCkTecGxlk7cbeRIXQL0ieDXaawID
AQABo4HRMIHOMAkGA1UdEwQCMAAwCwYDVR0PBAQDAgeAMBMGA1UdJQQMMAoGCCsG
AQUFBwMCMCwGCWCGSAGG+EIBDQQfFh1PcGVuU1NMIEdlbmVyYXRlZCBDZXJ0aWZp
Y2F0ZTAdBgNVHQ4EFgQURCgu6bH0kmGF66BEmdq0UrUSInEwHwYDVR0jBBgwFoAU
v0xjbD6dCRtq+GkluyRKH4AQppgwMQYDVR0fBCowKDAmoCSgIoYgaHR0cDovLzE5
Mi4xNjguMjEuODkvcm9vdGNybC5wZW0wDQYJKoZIhvcNAQEFBQADggEBAKhI6u6V
S5siUshxx/z09v2PB/GbgaxjdGvnVBMyQ+z95yd42cuhkFh51KBa2ph5uvyvln+d
hjdBhxRBb1xGt967Sa4gOwpi0qWPPGksqnjHEpkJ4X7RngmPYcjwUa7yKh090aBc
esI0T66QWEPfaCFkqHX5VzvJZNjJnLHXXidHz9rI4QBIxoAj/yjda0BTlmZnS2bQ
kw1gdA8fyDYOoG4cUzhgseYpfw47UKODlCJ+mkzGnTin3koIEum8tXFJGuTm1Clt
kT2RPH/5oOJmWO+a9M2M1Di+n/qegsUjhQjKcqe5qq4GnbNpZT2vbkK42QbId90c
3h08q6Dm8/qLTOk=
-----END CERTIFICATE-----
