Certificate:
    Data:
        Version: 3 (0x2)
        Serial Number: 1 (0x1)
    Signature Algorithm: sha1WithRSAEncryption
        Issuer: C=BA, ST=Republika Srpska, L=Banja Luka, O=Elektrotehnicki fakultet, OU=Katedra za racunarstvo i informatiku, CN=CA sertifikat/emailAddress=ca@etfbl.net
        Validity
            Not Before: May 29 15:42:21 2015 GMT
            Not After : May 26 15:42:21 2025 GMT
        Subject: C=BA, ST=Republika Srpska, O=Elektrotehnicki fakultet, OU=Katedra za racunarstvo i informatiku, CN=Klijent 2/emailAddress=klijent2@etfbl.net
        Subject Public Key Info:
            Public Key Algorithm: rsaEncryption
                Public-Key: (2048 bit)
                Modulus:
                    00:f1:6f:b3:d1:54:15:5d:ee:f2:b4:ee:4a:bc:c5:
                    89:3a:b6:13:8f:19:df:d6:df:e8:2c:52:51:58:32:
                    4b:6d:41:5d:73:c1:ff:7d:4e:40:1e:1c:2c:8c:3c:
                    18:a9:db:51:e6:c3:48:3f:93:6e:b0:87:bf:6a:5e:
                    e5:b2:92:89:e1:49:14:ba:b7:0b:ee:3a:d9:12:1b:
                    f2:d6:89:a1:90:db:43:4b:b6:5f:17:1a:fb:95:44:
                    1f:6c:45:2f:b3:9b:32:83:b9:d6:18:ea:d2:62:91:
                    e0:08:16:16:eb:56:8e:5c:e2:93:e8:7c:14:29:86:
                    79:8d:4f:bf:1c:5d:c2:2b:a6:10:f3:2b:45:68:99:
                    19:d3:fd:b1:94:1e:4c:77:ee:43:f0:e9:d7:60:0a:
                    a8:44:61:fc:ff:17:b8:bd:32:93:1a:a9:21:65:11:
                    e2:01:db:5d:4d:5f:5a:f8:03:1e:64:78:ae:c2:c4:
                    87:03:2d:70:c3:27:77:c3:d1:bf:f3:4f:cd:ce:7b:
                    65:cf:59:88:c5:36:f4:5f:c1:eb:53:cd:fa:47:e3:
                    b0:c6:55:d1:19:70:01:6f:f5:32:52:31:d8:3a:9f:
                    be:33:c6:df:ab:bf:2b:d5:75:e7:4d:96:06:21:a4:
                    fa:a1:bd:24:b4:a9:b8:b3:c4:fa:96:45:cf:73:b9:
                    fd:d7
                Exponent: 65537 (0x10001)
        X509v3 extensions:
            X509v3 Basic Constraints: 
                CA:FALSE
            X509v3 Key Usage: 
                Digital Signature, Non Repudiation, Key Encipherment
            Netscape Comment: 
                OpenSSL Generated Certificate
            X509v3 Subject Key Identifier: 
                F3:80:C9:61:83:FB:6C:7C:B6:23:5B:47:0A:F8:AB:C1:01:1B:61:4E
            X509v3 Authority Key Identifier: 
                keyid:5A:81:C8:F3:7C:3F:B6:BF:7F:7B:10:DD:CE:66:2A:5E:35:B6:2E:14

    Signature Algorithm: sha1WithRSAEncryption
         8a:90:fa:09:40:7c:74:3d:79:2e:b9:8f:6f:d6:c1:02:a1:37:
         d0:41:8d:2d:dd:a4:9b:de:60:05:84:f7:48:39:17:fc:1e:1f:
         14:0a:f8:3b:c5:15:98:56:79:25:15:7b:81:44:76:f4:ab:63:
         db:3b:9d:5a:44:d2:4d:b8:3d:94:af:52:54:74:4e:f2:86:23:
         1d:13:36:1d:bd:02:50:99:cc:b9:a9:6c:5e:06:94:d2:a3:9e:
         0a:33:be:ff:4a:dd:30:a5:65:2b:91:92:5d:11:2e:1a:c6:c4:
         a6:48:26:cf:8f:10:11:7b:49:ae:56:19:33:1d:e4:3e:33:37:
         53:a8:e0:75:a2:49:49:73:c2:a8:bc:3d:f3:73:56:8c:1b:b7:
         ca:df:7d:3b:36:2e:7a:94:91:67:a1:a9:91:e7:9c:1f:32:9c:
         b9:0e:18:71:20:fd:9e:a7:7b:11:b5:f5:4d:f7:db:0b:43:bb:
         14:24:99:0d:e9:3c:40:17:96:1a:49:3a:98:18:7e:af:4f:dd:
         0b:a8:ae:d6:2b:92:f1:6c:1b:c4:ff:f8:fc:3f:55:8e:40:c8:
         33:84:d0:9c:ef:d8:c8:cb:7e:de:b0:bc:1c:22:9d:4b:74:fc:
         26:93:30:65:f8:6a:7d:cf:cd:33:79:25:7f:f5:58:fe:fe:60:
         17:e1:ff:7f
-----BEGIN CERTIFICATE-----
MIIEfDCCA2SgAwIBAgIBATANBgkqhkiG9w0BAQUFADCBxDELMAkGA1UEBhMCQkEx
GTAXBgNVBAgTEFJlcHVibGlrYSBTcnBza2ExEzARBgNVBAcTCkJhbmphIEx1a2Ex
ITAfBgNVBAoTGEVsZWt0cm90ZWhuaWNraSBmYWt1bHRldDEtMCsGA1UECxMkS2F0
ZWRyYSB6YSByYWN1bmFyc3R2byBpIGluZm9ybWF0aWt1MRYwFAYDVQQDEw1DQSBz
ZXJ0aWZpa2F0MRswGQYJKoZIhvcNAQkBFgxjYUBldGZibC5uZXQwHhcNMTUwNTI5
MTU0MjIxWhcNMjUwNTI2MTU0MjIxWjCBsTELMAkGA1UEBhMCQkExGTAXBgNVBAgT
EFJlcHVibGlrYSBTcnBza2ExITAfBgNVBAoTGEVsZWt0cm90ZWhuaWNraSBmYWt1
bHRldDEtMCsGA1UECxMkS2F0ZWRyYSB6YSByYWN1bmFyc3R2byBpIGluZm9ybWF0
aWt1MRIwEAYDVQQDEwlLbGlqZW50IDIxITAfBgkqhkiG9w0BCQEWEmtsaWplbnQy
QGV0ZmJsLm5ldDCCASIwDQYJKoZIhvcNAQEBBQADggEPADCCAQoCggEBAPFvs9FU
FV3u8rTuSrzFiTq2E48Z39bf6CxSUVgyS21BXXPB/31OQB4cLIw8GKnbUebDSD+T
brCHv2pe5bKSieFJFLq3C+462RIb8taJoZDbQ0u2Xxca+5VEH2xFL7ObMoO51hjq
0mKR4AgWFutWjlzik+h8FCmGeY1PvxxdwiumEPMrRWiZGdP9sZQeTHfuQ/Dp12AK
qERh/P8XuL0ykxqpIWUR4gHbXU1fWvgDHmR4rsLEhwMtcMMnd8PRv/NPzc57Zc9Z
iMU29F/B61PN+kfjsMZV0RlwAW/1MlIx2DqfvjPG36u/K9V1502WBiGk+qG9JLSp
uLPE+pZFz3O5/dcCAwEAAaOBiTCBhjAJBgNVHRMEAjAAMAsGA1UdDwQEAwIF4DAs
BglghkgBhvhCAQ0EHxYdT3BlblNTTCBHZW5lcmF0ZWQgQ2VydGlmaWNhdGUwHQYD
VR0OBBYEFPOAyWGD+2x8tiNbRwr4q8EBG2FOMB8GA1UdIwQYMBaAFFqByPN8P7a/
f3sQ3c5mKl41ti4UMA0GCSqGSIb3DQEBBQUAA4IBAQCKkPoJQHx0PXkuuY9v1sEC
oTfQQY0t3aSb3mAFhPdIORf8Hh8UCvg7xRWYVnklFXuBRHb0q2PbO51aRNJNuD2U
r1JUdE7yhiMdEzYdvQJQmcy5qWxeBpTSo54KM77/St0wpWUrkZJdES4axsSmSCbP
jxARe0muVhkzHeQ+MzdTqOB1oklJc8KovD3zc1aMG7fK3307Ni56lJFnoamR55wf
Mpy5DhhxIP2ep3sRtfVN99sLQ7sUJJkN6TxAF5YaSTqYGH6vT90LqK7WK5LxbBvE
//j8P1WOQMgzhNCc79jIy37esLwcIp1LdPwmkzBl+Gp9z80zeSV/9Vj+/mAX4f9/
-----END CERTIFICATE-----
