Certificate:
    Data:
        Version: 3 (0x2)
        Serial Number: 161 (0xa1)
        Signature Algorithm: sha1WithRSAEncryption
        Issuer: C=BA, ST=RS, L=Banja Luka, L=Bijeljina, L=Prijedor, O=Elektrotehnicki fakultet, OU=ETF, CN=CA tijelo/emailAddress=ca@mail.com/pseudonym=Racunski centar
        Validity
            Not Before: Jan 15 14:50:10 2026 GMT
            Not After : Dec 15 14:50:10 2031 GMT
        Subject: C=BA, ST=RS, O=Elektrotehnicki fakultet, OU=ETF, L=Banja Luka, CN=LUKA/emailAddress=SKDJF@LI.GMAIL/pseudonym=PSEUDONIM
        Subject Public Key Info:
            Public Key Algorithm: rsaEncryption
                Public-Key: (4096 bit)
                Modulus:
                    00:b8:83:15:8e:8f:17:ae:a2:65:13:e4:b0:3b:a8:
                    4c:66:92:49:77:f6:29:4c:80:a6:d5:db:22:55:88:
                    f7:43:fe:42:13:1e:86:3d:27:31:ec:39:f2:01:48:
                    22:90:77:4a:75:87:df:44:53:4a:b5:3f:eb:bf:90:
                    ef:a2:66:38:ee:b6:39:6a:3f:eb:63:f4:aa:be:8a:
                    33:c3:be:64:1f:1f:42:66:49:79:4f:be:33:38:70:
                    8b:a5:67:8e:a9:78:8b:22:97:9b:af:b0:4f:ff:5f:
                    06:73:a4:74:ff:6d:25:b0:81:1a:34:a0:d1:ab:7f:
                    4f:bb:77:7c:a0:5f:fe:d9:3d:59:6b:d1:72:a2:bb:
                    ab:16:ac:3f:78:27:ca:a4:a5:3c:66:08:66:bf:d0:
                    74:6f:73:90:68:bc:3b:e4:14:a7:2c:3c:2c:d2:09:
                    da:d3:75:b2:0a:5e:6e:53:b0:a8:de:39:23:9a:62:
                    2f:cc:71:e4:5b:a9:55:92:c4:c5:02:f6:ba:e4:22:
                    74:8d:21:6e:11:4f:c3:49:ef:17:0f:d5:03:f6:ef:
                    75:c6:88:28:f6:9c:a3:b8:23:49:67:8c:3f:86:76:
                    3e:05:c1:0b:23:f1:38:76:28:48:ff:cf:9f:cb:36:
                    db:f3:79:52:be:55:a8:ef:52:71:f0:f5:d9:00:99:
                    45:36:a1:e9:0e:18:09:fa:7a:53:a2:e1:77:be:6e:
                    76:51:cb:55:c9:91:19:95:e9:65:4d:56:96:58:61:
                    10:4b:bf:3b:19:0b:54:91:8c:88:9a:20:7b:cb:7d:
                    ba:f0:c2:da:a6:72:69:93:24:be:55:6a:6d:df:32:
                    69:e5:0f:63:c4:a3:db:33:cd:9a:0f:fd:df:44:6d:
                    6f:20:d0:0e:8d:fe:c1:e9:12:ac:2e:58:7c:2a:11:
                    7a:10:2b:95:66:9f:d0:bc:25:92:78:3f:cf:a2:e6:
                    23:2c:a4:d9:87:af:89:f1:24:72:81:d9:a6:61:d7:
                    01:a9:06:44:ef:ce:49:d1:9e:b1:75:3f:84:6f:ee:
                    60:73:9d:00:66:ca:22:06:32:f8:dd:97:84:b6:bb:
                    6d:6e:ac:b1:75:df:cf:3e:f8:dc:65:5f:05:14:16:
                    cb:84:c0:1f:f9:76:62:6a:d9:51:33:6e:19:15:cd:
                    8c:ea:24:03:48:66:0a:24:96:fd:d9:eb:bb:99:92:
                    de:de:82:76:88:12:41:b4:44:72:9a:1f:ea:9e:cf:
                    00:03:6f:13:b0:01:2e:cf:38:fb:e1:c4:72:1d:45:
                    fd:a6:d1:e7:52:65:d5:39:f1:f3:76:c9:c8:20:5d:
                    28:e8:be:da:c0:e8:8a:8e:8e:91:a3:d0:45:bc:8a:
                    ec:3d:d3
                Exponent: 65537 (0x10001)
        X509v3 extensions:
            X509v3 Basic Constraints: 
                CA:FALSE
            X509v3 Key Usage: 
                Data Encipherment
            Netscape Comment: 
                OpenSSL Generated Certificate
            X509v3 Subject Key Identifier: 
                82:18:D7:03:20:46:AA:EC:08:CD:2F:C6:84:2B:57:8E:FC:38:DE:9A
            X509v3 Authority Key Identifier: 
                82:18:D7:03:20:46:AA:EC:08:CD:2F:C6:84:2B:57:8E:FC:38:DE:9A
            X509v3 CRL Distribution Points: 
                Full Name:
                  URI:http://192.168.21.89/rootcrl.pem
    Signature Algorithm: sha1WithRSAEncryption
    Signature Value:
        6d:37:eb:e0:31:79:29:1c:64:33:14:87:98:06:cc:e8:cb:c7:
        0a:91:6b:28:1b:aa:00:45:9b:5d:16:e6:ea:d6:c9:2c:4e:24:
        e8:fa:a8:2b:90:d4:b5:f3:11:9a:2a:40:57:39:f0:c0:f9:46:
        2e:00:f4:89:b2:fe:a2:6e:3b:5c:68:b8:8b:79:85:fa:d5:95:
        60:c1:8a:ff:5d:96:57:9c:b8:ce:99:8f:29:33:94:0c:4b:fd:
        30:29:47:59:da:e2:cf:c1:40:cc:b2:7a:70:14:4e:cd:89:ba:
        06:ed:35:19:80:07:b6:fe:cf:03:e7:e0:51:e4:77:50:fe:60:
        d6:2a:17:d2:d0:2e:c7:6c:3d:f9:af:ae:7a:02:76:1d:df:32:
        3c:65:06:7d:55:9e:64:6c:08:ab:ab:e5:f0:a7:99:f4:a9:06:
        0c:ba:f9:67:83:eb:d6:2a:82:15:b1:04:da:d2:fb:b9:0a:dc:
        58:7c:18:ff:7c:c2:98:4e:78:eb:b5:fd:49:3e:78:5d:a8:f6:
        a2:53:5c:ab:02:be:b1:e3:3c:6e:37:d9:42:f7:1b:6c:5f:c8:
        dc:68:21:fd:fe:7f:91:55:7a:e8:93:5e:4a:78:ed:40:14:e4:
        cf:f1:bd:c4:cd:97:5c:12:41:c6:6f:3b:30:ab:cc:ee:c4:9f:
        fb:ad:3d:0b:66:42:f2:46:7b:ed:17:b7:dd:03:51:09:98:c7:
        72:45:cb:e0:58:dd:c9:a3:86:1f:3a:5c:ae:1f:12:99:22:7a:
        55:c0:90:f4:b5:d4:4e:57:1d:86:21:11:4f:bb:7c:c2:4b:c1:
        f4:67:7d:28:e1:71:59:bf:94:e1:e6:27:ef:89:38:72:b9:95:
        0c:e5:65:b5:88:40:7d:64:af:55:09:dd:68:04:c4:cf:e3:84:
        b3:f4:b5:40:ba:51:ac:c5:64:2e:37:94:34:f8:3c:6f:c4:12:
        84:8e:e6:32:db:a7:c5:e1:20:61:e6:05:04:a6:27:b6:10:30:
        91:b4:07:c9:c9:a2:2d:fe:a6:13:03:22:30:e4:ab:88:da:09:
        2b:a3:d0:de:37:93:d2:ee:c2:cd:56:6f:15:58:72:db:e6:a3:
        38:0b:72:3c:49:28:87:73:10:f9:de:22:c1:da:c8:c7:43:81:
        29:42:80:4d:9c:7a:cf:cf:72:16:c8:0f:8f:a9:3e:c5:94:19:
        90:10:45:f7:35:56:98:e7:09:6b:a3:9c:c6:2a:dc:20:aa:62:
        b6:c6:1b:09:43:c6:31:cf:85:56:8f:3a:d2:27:13:87:28:10:
        a5:4c:82:89:61:25:9a:9e:cd:3e:35:1c:ff:7b:0f:37:71:f0:
        ef:6f:af:7a:17:8a:51:bd
-----BEGIN CERTIFICATE-----
MIIGrjCCBJagAwIBAgICAKEwDQYJKoZIhvcNAQEFBQAwgdExCzAJBgNVBAYTAkJB
MQswCQYDVQQIEwJSUzETMBEGA1UEBxMKQmFuamEgTHVrYTESMBAGA1UEBxMJQmlq
ZWxqaW5hMREwDwYDVQQHEwhQcmlqZWRvcjEhMB8GA1UEChMYRWxla3Ryb3RlaG5p
Y2tpIGZha3VsdGV0MQwwCgYDVQQLEwNFVEYxEjAQBgNVBAMTCUNBIHRpamVsbzEa
MBgGCSqGSIb3DQEJARYLY2FAbWFpbC5jb20xGDAWBgNVBEETD1JhY3Vuc2tpIGNl
bnRhcjAeFw0yNjAxMTUxNDUwMTBaFw0zMTEyMTUxNDUwMTBaMIGiMQswCQYDVQQG
EwJCQTELMAkGA1UECBMCUlMxITAfBgNVBAoTGEVsZWt0cm90ZWhuaWNraSBmYWt1
bHRldDEMMAoGA1UECxMDRVRGMRMwEQYDVQQHEwpCYW5qYSBMdWthMQ0wCwYDVQQD
EwRMVUtBMR0wGwYJKoZIhvcNAQkBFg5TS0RKRkBMSS5HTUFJTDESMBAGA1UEQRMJ
UFNFVURPTklNMIICIjANBgkqhkiG9w0BAQEFAAOCAg8AMIICCgKCAgEAuIMVjo8X
rqJlE+SwO6hMZpJJd/YpTICm1dsiVYj3Q/5CEx6GPScx7DnyAUgikHdKdYffRFNK
tT/rv5DvomY47rY5aj/rY/Sqvoozw75kHx9CZkl5T74zOHCLpWeOqXiLIpebr7BP
/18Gc6R0/20lsIEaNKDRq39Pu3d8oF/+2T1Za9FyorurFqw/eCfKpKU8Zghmv9B0
b3OQaLw75BSnLDws0gna03WyCl5uU7Co3jkjmmIvzHHkW6lVksTFAva65CJ0jSFu
EU/DSe8XD9UD9u91xogo9pyjuCNJZ4w/hnY+BcELI/E4dihI/8+fyzbb83lSvlWo
71Jx8PXZAJlFNqHpDhgJ+npTouF3vm52UctVyZEZlellTVaWWGEQS787GQtUkYyI
miB7y3268MLapnJpkyS+VWpt3zJp5Q9jxKPbM82aD/3fRG1vINAOjf7B6RKsLlh8
KhF6ECuVZp/QvCWSeD/PouYjLKTZh6+J8SRygdmmYdcBqQZE785J0Z6xdT+Eb+5g
c50AZsoiBjL43ZeEtrttbqyxdd/PPvjcZV8FFBbLhMAf+XZiatlRM24ZFc2M6iQD
SGYKJJb92eu7mZLe3oJ2iBJBtERymh/qns8AA28TsAEuzzj74cRyHUX9ptHnUmXV
OfHzdsnIIF0o6L7awOiKjo6Ro9BFvIrsPdMCAwEAAaOBvDCBuTAJBgNVHRMEAjAA
MAsGA1UdDwQEAwIEEDAsBglghkgBhvhCAQ0EHxYdT3BlblNTTCBHZW5lcmF0ZWQg
Q2VydGlmaWNhdGUwHQYDVR0OBBYEFIIY1wMgRqrsCM0vxoQrV478ON6aMB8GA1Ud
IwQYMBaAFIIY1wMgRqrsCM0vxoQrV478ON6aMDEGA1UdHwQqMCgwJqAkoCKGIGh0
dHA6Ly8xOTIuMTY4LjIxLjg5L3Jvb3RjcmwucGVtMA0GCSqGSIb3DQEBBQUAA4IC
AQBtN+vgMXkpHGQzFIeYBszoy8cKkWsoG6oARZtdFubq1sksTiTo+qgrkNS18xGa
KkBXOfDA+UYuAPSJsv6ibjtcaLiLeYX61ZVgwYr/XZZXnLjOmY8pM5QMS/0wKUdZ
2uLPwUDMsnpwFE7NiboG7TUZgAe2/s8D5+BR5HdQ/mDWKhfS0C7HbD35r656AnYd
3zI8ZQZ9VZ5kbAirq+Xwp5n0qQYMuvlng+vWKoIVsQTa0vu5CtxYfBj/fMKYTnjr
tf1JPnhdqPaiU1yrAr6x4zxuN9lC9xtsX8jcaCH9/n+RVXrok15KeO1AFOTP8b3E
zZdcEkHGbzswq8zuxJ/7rT0LZkLyRnvtF7fdA1EJmMdyRcvgWN3Jo4YfOlyuHxKZ
InpVwJD0tdROVx2GIRFPu3zCS8H0Z30o4XFZv5Th5ifviThyuZUM5WW1iEB9ZK9V
Cd1oBMTP44Sz9LVAulGsxWQuN5Q0+DxvxBKEjuYy26fF4SBh5gUEpie2EDCRtAfJ
yaIt/qYTAyIw5KuI2gkro9DeN5PS7sLNVm8VWHLb5qM4C3I8SSiHcxD53iLB2sjH
Q4EpQoBNnHrPz3IWyA+PqT7FlBmQEEX3NVaY5wlro5zGKtwgqmK2xhsJQ8Yxz4VW
jzrSJxOHKBClTIKJYSWans0+NRz/ew83cfDvb696F4pRvQ==
-----END CERTIFICATE-----
