Certificate:
    Data:
        Version: 3 (0x2)
        Serial Number: 82028295060 (0x1319447394)
    Signature Algorithm: sha1WithRSAEncryption
        Issuer: C=BA, ST=Republika Srpska, L=Banja Luka, O=Elektrotehnicki fakultet, OU=Katedra za racunarstvo i informatiku, CN=Web server CA/emailAddress=ca@etfbl.net
        Validity
            Not Before: Jan 21 21:27:24 2017 GMT
            Not After : Jan 21 21:27:24 2018 GMT
        Subject: C=BA, ST=Republika Srpska, L=Banja Luka, O=Elektrotehnicki fakultet, OU=Katedra za racunarstvo i informatiku, CN=Klijent 10/emailAddress=ca10@etfbl.net
        Subject Public Key Info:
            Public Key Algorithm: rsaEncryption
                Public-Key: (2048 bit)
                Modulus:
                    00:c5:f5:91:20:78:96:f6:ee:9a:1e:8a:4a:aa:45:
                    78:3f:32:07:75:21:16:ab:1d:ca:1b:1e:a6:48:ec:
                    f2:63:d8:54:60:ce:d5:7b:34:67:79:5e:5a:b3:46:
                    dd:ed:61:38:e1:7e:72:62:a1:5e:3a:8b:79:bd:b2:
                    cf:31:fe:dc:ac:11:f5:ae:cf:fe:70:d3:cc:e4:d3:
                    c1:e1:ff:c0:47:0e:26:7f:fd:89:08:b1:e3:e1:2a:
                    1e:9f:e8:27:45:08:8a:75:70:0c:8e:d2:49:56:83:
                    6c:c4:44:cc:ce:01:a2:f9:cc:9f:3d:ab:88:2d:c6:
                    73:94:4b:77:14:4d:47:18:b0:e7:79:b8:e4:e8:ab:
                    d0:5b:74:eb:45:8b:4e:15:52:8f:fa:f2:ae:7b:95:
                    b1:b8:2b:04:52:51:bb:48:f5:69:04:cc:fd:34:a5:
                    05:f1:22:d3:38:2e:cb:f9:44:86:0f:b2:aa:c5:a4:
                    31:d7:dd:82:9d:ea:58:41:cc:47:d6:8f:09:87:f7:
                    4a:6d:8b:11:0c:06:67:91:20:9b:f3:fd:0c:c3:ff:
                    c5:49:58:44:12:f6:5e:0e:9c:20:ae:dd:1b:cb:e1:
                    43:01:45:ba:f8:97:22:48:3c:1a:9a:98:34:85:64:
                    78:85:ca:d3:3b:75:e3:95:0f:9d:44:38:f4:e4:bf:
                    62:7b
                Exponent: 65537 (0x10001)
        X509v3 extensions:
            X509v3 Basic Constraints: 
                CA:FALSE
            Netscape Cert Type: 
                SSL Client, S/MIME
            X509v3 Key Usage: 
                Digital Signature, Non Repudiation, Key Encipherment
            X509v3 Extended Key Usage: 
                TLS Web Server Authentication, TLS Web Client Authentication
            Netscape Comment: 
                OpenSSL Generated Certificate
            X509v3 Subject Key Identifier: 
                FD:4A:A9:07:5E:C6:87:62:13:84:90:38:07:4A:14:AA:B9:4A:98:18
            X509v3 Authority Key Identifier: 
                keyid:4A:D4:5B:22:1D:17:67:86:3F:7E:A2:38:25:67:21:19:65:9F:E9:F9

    Signature Algorithm: sha1WithRSAEncryption
         36:78:2e:59:72:a5:f0:6d:8b:8d:f0:7e:e0:86:5a:25:50:65:
         5c:e8:6f:ca:92:cb:c0:f5:63:ad:46:07:0b:7b:eb:e9:de:ae:
         19:df:1e:39:40:ff:c0:e2:0a:84:49:74:2b:4d:23:f6:e8:04:
         0d:ee:5a:e9:6e:dd:79:65:68:af:95:eb:03:ff:af:08:b8:78:
         6c:52:cd:9d:7c:bd:28:03:57:56:8e:bc:ce:7d:69:9e:e9:bb:
         f8:77:e5:a1:d6:72:36:91:22:74:81:31:84:8b:96:9d:7a:97:
         f6:58:44:a2:c7:9a:f3:98:fc:c5:a8:a2:ca:12:1c:e7:fb:8e:
         e3:e9:bc:fe:21:9d:1a:82:ba:bd:e3:b2:0c:be:fe:85:19:77:
         66:e0:c8:9a:e5:0e:c3:31:49:df:9a:52:cb:5a:9c:ca:86:bc:
         4c:45:9e:de:26:76:95:ff:52:76:f1:4d:89:b1:09:e7:f6:2c:
         5c:de:6c:40:57:05:8a:80:20:ef:f2:1f:40:b3:6c:d9:1e:af:
         2e:fb:ab:52:87:e5:45:6a:0b:da:0b:7f:a1:68:b4:17:9a:01:
         53:9c:9a:b9:84:e9:fb:7d:a0:c7:1e:22:13:22:e6:b3:9b:60:
         7c:3d:e3:fa:de:ce:56:ea:c9:b6:5b:9f:88:15:5c:51:12:2a:
         a7:37:68:09:2f:b3:de:3d:f0:a8:af:60:52:02:23:f7:23:d4:
         ca:32:73:c3:76:e0:37:e6:c2:17:75:f9:6b:f1:3a:de:57:1f:
         6c:3a:b0:5f:fd:cf:b6:c6:7d:bc:d7:bc:a5:ed:56:27:59:77:
         9f:28:29:f4:da:00:f6:91:df:6e:1d:bd:d3:69:0d:7c:f2:e1:
         e8:29:f2:71:1a:57:20:af:e8:59:31:73:e8:64:b8:11:f7:40:
         b6:61:bd:6e:bf:e5:eb:fd:3f:d4:78:16:65:25:48:30:99:97:
         57:e5:d6:73:ef:45:7b:d9:eb:a9:67:41:5e:80:0d:cf:a4:ec:
         0f:fc:6f:79:3e:88:82:73:0f:aa:73:64:2a:90:54:d8:78:bd:
         79:9c:8d:21:9d:53:2e:e0:a8:dd:4e:29:08:b9:5b:e3:d0:8c:
         1e:b8:8f:c7:60:2b:de:47:98:8a:eb:0b:62:d1:9c:7f:ab:2c:
         d5:b8:ed:9b:4c:87:95:c1:07:9b:08:15:a5:96:50:a1:8f:f1:
         56:8f:16:a6:bb:c4:7c:d6:55:c3:5e:44:31:5a:d6:7f:35:67:
         cd:c8:23:d6:b3:15:86:03:b1:41:26:d4:ee:f0:8b:73:8c:59:
         87:43:66:9a:1e:19:01:24:b0:72:9d:e3:c8:8a:15:fa:4b:6e:
         ff:ea:f4:3b:1f:83:9b:17
-----BEGIN CERTIFICATE-----
MIIFxDCCA6ygAwIBAgIFExlEc5QwDQYJKoZIhvcNAQEFBQAwgcQxCzAJBgNVBAYT
AkJBMRkwFwYDVQQIExBSZXB1Ymxpa2EgU3Jwc2thMRMwEQYDVQQHEwpCYW5qYSBM
dWthMSEwHwYDVQQKExhFbGVrdHJvdGVobmlja2kgZmFrdWx0ZXQxLTArBgNVBAsT
JEthdGVkcmEgemEgcmFjdW5hcnN0dm8gaSBpbmZvcm1hdGlrdTEWMBQGA1UEAxMN
V2ViIHNlcnZlciBDQTEbMBkGCSqGSIb3DQEJARYMY2FAZXRmYmwubmV0MB4XDTE3
MDEyMTIxMjcyNFoXDTE4MDEyMTIxMjcyNFowgcMxCzAJBgNVBAYTAkJBMRkwFwYD
VQQIExBSZXB1Ymxpa2EgU3Jwc2thMRMwEQYDVQQHEwpCYW5qYSBMdWthMSEwHwYD
VQQKExhFbGVrdHJvdGVobmlja2kgZmFrdWx0ZXQxLTArBgNVBAsTJEthdGVkcmEg
emEgcmFjdW5hcnN0dm8gaSBpbmZvcm1hdGlrdTETMBEGA1UEAxMKS2xpamVudCAx
MDEdMBsGCSqGSIb3DQEJARYOY2ExMEBldGZibC5uZXQwggEiMA0GCSqGSIb3DQEB
AQUAA4IBDwAwggEKAoIBAQDF9ZEgeJb27poeikqqRXg/Mgd1IRarHcobHqZI7PJj
2FRgztV7NGd5XlqzRt3tYTjhfnJioV46i3m9ss8x/tysEfWuz/5w08zk08Hh/8BH
DiZ//YkIsePhKh6f6CdFCIp1cAyO0klWg2zERMzOAaL5zJ89q4gtxnOUS3cUTUcY
sOd5uOToq9BbdOtFi04VUo/68q57lbG4KwRSUbtI9WkEzP00pQXxItM4Lsv5RIYP
sqrFpDHX3YKd6lhBzEfWjwmH90ptixEMBmeRIJvz/QzD/8VJWEQS9l4OnCCu3RvL
4UMBRbr4lyJIPBqamDSFZHiFytM7deOVD51EOPTkv2J7AgMBAAGjgbswgbgwCQYD
VR0TBAIwADARBglghkgBhvhCAQEEBAMCBaAwCwYDVR0PBAQDAgXgMB0GA1UdJQQW
MBQGCCsGAQUFBwMBBggrBgEFBQcDAjAsBglghkgBhvhCAQ0EHxYdT3BlblNTTCBH
ZW5lcmF0ZWQgQ2VydGlmaWNhdGUwHQYDVR0OBBYEFP1KqQdexodiE4SQOAdKFKq5
SpgYMB8GA1UdIwQYMBaAFErUWyIdF2eGP36iOCVnIRlln+n5MA0GCSqGSIb3DQEB
BQUAA4ICAQA2eC5ZcqXwbYuN8H7ghlolUGVc6G/KksvA9WOtRgcLe+vp3q4Z3x45
QP/A4gqESXQrTSP26AQN7lrpbt15ZWivlesD/68IuHhsUs2dfL0oA1dWjrzOfWme
6bv4d+Wh1nI2kSJ0gTGEi5adepf2WESix5rzmPzFqKLKEhzn+47j6bz+IZ0agrq9
47IMvv6FGXdm4Mia5Q7DMUnfmlLLWpzKhrxMRZ7eJnaV/1J28U2JsQnn9ixc3mxA
VwWKgCDv8h9As2zZHq8u+6tSh+VFagvaC3+haLQXmgFTnJq5hOn7faDHHiITIuaz
m2B8PeP63s5W6sm2W5+IFVxREiqnN2gJL7PePfCor2BSAiP3I9TKMnPDduA35sIX
dflr8TreVx9sOrBf/c+2xn2817yl7VYnWXefKCn02gD2kd9uHb3TaQ188uHoKfJx
Glcgr+hZMXPoZLgR90C2Yb1uv+Xr/T/UeBZlJUgwmZdX5dZz70V72eupZ0FegA3P
pOwP/G95PoiCcw+qc2QqkFTYeL15nI0hnVMu4KjdTikIuVvj0IweuI/HYCveR5iK
6wti0Zx/qyzVuO2bTIeVwQebCBWlllChj/FWjxamu8R81lXDXkQxWtZ/NWfNyCPW
sxWGA7FBJtTu8ItzjFmHQ2aaHhkBJLBynePIihX6S27/6vQ7H4ObFw==
-----END CERTIFICATE-----
