Certificate:
    Data:
        Version: 3 (0x2)
        Serial Number: 82028295063 (0x1319447397)
    Signature Algorithm: sha1WithRSAEncryption
        Issuer: C=BA, ST=Republika Srpska, L=Banja Luka, O=Elektrotehnicki fakultet, OU=Katedra za racunarstvo i informatiku, CN=Web server CA/emailAddress=ca@etfbl.net
        Validity
            Not Before: Jan 21 21:27:24 2017 GMT
            Not After : Jan 21 21:27:24 2018 GMT
        Subject: C=BA, ST=Republika Srpska, L=Banja Luka, O=Elektrotehnicki fakultet, OU=Katedra za racunarstvo i informatiku, CN=Klijent 13/emailAddress=ca13@etfbl.net
        Subject Public Key Info:
            Public Key Algorithm: rsaEncryption
                Public-Key: (2048 bit)
                Modulus:
                    00:af:6a:92:95:6a:85:1a:e0:1e:d9:98:83:f2:32:
                    33:9b:95:d7:19:4a:21:40:b0:fb:b1:60:5c:e2:a2:
                    9d:06:60:8d:c7:5a:54:81:79:99:ec:51:24:13:ae:
                    36:ca:d3:8c:60:1a:6a:26:4a:63:25:f8:c9:93:83:
                    84:a6:cf:82:6c:42:c7:e8:10:43:7c:94:49:1a:f3:
                    6e:20:1e:f3:a4:9e:e6:16:84:f9:28:24:ce:36:0a:
                    da:8d:6d:6e:38:8f:19:1c:f2:91:0a:27:0d:63:82:
                    5f:97:78:48:02:5a:6f:b3:1c:b2:52:74:a6:73:2b:
                    c0:52:a1:45:39:b6:e9:b6:b5:89:eb:6f:4c:48:b2:
                    de:87:9d:af:86:54:57:08:91:7c:c4:51:d7:07:f8:
                    b6:a9:cf:04:0a:6c:70:55:57:9e:04:7e:c8:58:45:
                    e0:e2:45:5c:a8:30:b3:10:a3:8d:9d:4e:b0:85:11:
                    7b:7e:a2:06:61:81:7a:f6:07:f6:94:b4:46:82:ff:
                    4e:5c:e5:94:3a:74:e3:7c:4f:21:28:69:a9:6d:10:
                    d3:c4:a7:4c:6b:bc:b8:12:92:f0:03:6b:aa:4c:5d:
                    06:a1:49:64:b9:7b:1c:4a:68:dd:a4:19:6c:87:46:
                    4b:af:5d:07:37:3b:31:b8:f6:d0:15:1e:b6:71:1e:
                    7b:1f
                Exponent: 65537 (0x10001)
        X509v3 extensions:
            X509v3 Basic Constraints: 
                CA:FALSE
            Netscape Cert Type: 
                SSL Client, S/MIME
            X509v3 Key Usage: 
                Digital Signature, Non Repudiation, Key Encipherment
            X509v3 Extended Key Usage: 
                TLS Web Server Authentication, TLS Web Client Authentication
            Netscape Comment: 
                OpenSSL Generated Certificate
            X509v3 Subject Key Identifier: 
                3A:E3:7E:5E:F2:B0:F3:0E:B2:69:7C:FE:FB:F7:CA:64:C8:C1:15:23
            X509v3 Authority Key Identifier: 
                keyid:4A:D4:5B:22:1D:17:67:86:3F:7E:A2:38:25:67:21:19:65:9F:E9:F9

    Signature Algorithm: sha1WithRSAEncryption
         61:c8:0b:49:e1:1d:50:6c:0f:86:ad:f2:87:91:a7:4a:43:ec:
         26:25:38:d8:a9:49:c5:a2:a8:81:d3:2b:38:15:0f:ef:01:cf:
         83:b6:b8:06:8c:75:3f:b8:4b:02:3b:df:0b:3c:ab:5d:2d:52:
         7b:ee:2c:7f:8a:a3:56:68:ff:b3:82:dc:d0:1a:61:21:0e:8b:
         0c:1b:07:24:1e:05:74:d4:a3:c7:51:a9:14:37:d7:fa:2b:46:
         f9:f4:ab:4d:67:3f:78:0c:b6:31:d9:1d:5a:5e:71:c5:2f:93:
         e0:9d:3a:6d:b3:2f:ce:91:c3:c2:37:c7:80:73:fc:be:8b:9e:
         bb:48:6e:c6:39:fc:c4:93:2b:bd:4b:30:a9:8f:2a:74:9c:a2:
         05:5b:23:6e:a3:51:71:84:24:f0:2c:72:6d:63:df:46:34:cd:
         75:15:06:d9:47:27:d5:f9:ab:8f:39:67:dd:04:c9:23:f1:10:
         e3:ee:61:f5:7f:1a:51:2e:e5:aa:05:98:9c:ce:f4:8b:88:ed:
         8f:62:26:3b:84:31:d8:69:a5:5b:de:c0:0d:b5:1f:5e:94:37:
         08:67:fd:ab:56:dc:2e:77:dd:fd:c1:98:52:40:0b:e2:b1:8a:
         19:36:7d:16:30:5f:e6:55:cf:34:ce:17:0b:bc:60:a2:e9:0a:
         74:54:d2:a6:f4:9d:4b:09:60:92:84:ee:7b:17:ca:97:42:72:
         e5:a8:d2:eb:83:49:45:c5:ba:05:4c:49:b8:30:f9:cd:6a:45:
         5f:00:8b:46:bf:48:ee:5c:70:61:41:a6:3d:1a:91:b4:5a:5a:
         de:fb:03:87:d0:3f:77:46:ed:be:b8:62:99:90:e4:f9:0c:1e:
         01:4a:07:c5:c4:97:ef:8b:5e:e3:23:9a:3e:ec:34:29:2b:e7:
         9d:76:4f:c2:16:e3:dd:d0:88:37:91:d5:5f:99:53:7b:7e:5f:
         44:4a:ee:d7:7e:0c:ff:ec:d6:01:46:a9:aa:a5:5d:b8:33:89:
         77:69:70:42:96:01:58:fb:9c:5e:c4:1f:28:3f:3c:56:13:b5:
         6b:9e:51:c9:15:12:59:96:72:e2:9b:c3:93:f9:c4:d2:c7:77:
         66:bd:4a:29:6f:3e:92:7f:86:74:a5:96:56:be:a4:43:a4:04:
         ed:ff:a3:7b:23:dd:21:24:e0:80:0f:b6:b0:f2:ec:3a:e7:eb:
         39:e1:06:64:1b:9f:bb:0a:ed:98:58:53:9c:f1:05:9e:87:87:
         f2:35:f5:e2:ac:35:38:1b:64:a3:74:11:59:51:ae:01:35:de:
         2f:1a:47:54:d8:08:3f:f1:55:1e:4a:fb:77:8f:e0:34:97:ad:
         90:dd:27:78:14:88:81:d9
-----BEGIN CERTIFICATE-----
MIIFxDCCA6ygAwIBAgIFExlEc5cwDQYJKoZIhvcNAQEFBQAwgcQxCzAJBgNVBAYT
AkJBMRkwFwYDVQQIExBSZXB1Ymxpa2EgU3Jwc2thMRMwEQYDVQQHEwpCYW5qYSBM
dWthMSEwHwYDVQQKExhFbGVrdHJvdGVobmlja2kgZmFrdWx0ZXQxLTArBgNVBAsT
JEthdGVkcmEgemEgcmFjdW5hcnN0dm8gaSBpbmZvcm1hdGlrdTEWMBQGA1UEAxMN
V2ViIHNlcnZlciBDQTEbMBkGCSqGSIb3DQEJARYMY2FAZXRmYmwubmV0MB4XDTE3
MDEyMTIxMjcyNFoXDTE4MDEyMTIxMjcyNFowgcMxCzAJBgNVBAYTAkJBMRkwFwYD
VQQIExBSZXB1Ymxpa2EgU3Jwc2thMRMwEQYDVQQHEwpCYW5qYSBMdWthMSEwHwYD
VQQKExhFbGVrdHJvdGVobmlja2kgZmFrdWx0ZXQxLTArBgNVBAsTJEthdGVkcmEg
emEgcmFjdW5hcnN0dm8gaSBpbmZvcm1hdGlrdTETMBEGA1UEAxMKS2xpamVudCAx
MzEdMBsGCSqGSIb3DQEJARYOY2ExM0BldGZibC5uZXQwggEiMA0GCSqGSIb3DQEB
AQUAA4IBDwAwggEKAoIBAQCvapKVaoUa4B7ZmIPyMjObldcZSiFAsPuxYFziop0G
YI3HWlSBeZnsUSQTrjbK04xgGmomSmMl+MmTg4Smz4JsQsfoEEN8lEka824gHvOk
nuYWhPkoJM42CtqNbW44jxkc8pEKJw1jgl+XeEgCWm+zHLJSdKZzK8BSoUU5tum2
tYnrb0xIst6Hna+GVFcIkXzEUdcH+LapzwQKbHBVV54EfshYReDiRVyoMLMQo42d
TrCFEXt+ogZhgXr2B/aUtEaC/05c5ZQ6dON8TyEoaaltENPEp0xrvLgSkvADa6pM
XQahSWS5exxKaN2kGWyHRkuvXQc3OzG49tAVHrZxHnsfAgMBAAGjgbswgbgwCQYD
VR0TBAIwADARBglghkgBhvhCAQEEBAMCBaAwCwYDVR0PBAQDAgXgMB0GA1UdJQQW
MBQGCCsGAQUFBwMBBggrBgEFBQcDAjAsBglghkgBhvhCAQ0EHxYdT3BlblNTTCBH
ZW5lcmF0ZWQgQ2VydGlmaWNhdGUwHQYDVR0OBBYEFDrjfl7ysPMOsml8/vv3ymTI
wRUjMB8GA1UdIwQYMBaAFErUWyIdF2eGP36iOCVnIRlln+n5MA0GCSqGSIb3DQEB
BQUAA4ICAQBhyAtJ4R1QbA+GrfKHkadKQ+wmJTjYqUnFoqiB0ys4FQ/vAc+DtrgG
jHU/uEsCO98LPKtdLVJ77ix/iqNWaP+zgtzQGmEhDosMGwckHgV01KPHUakUN9f6
K0b59KtNZz94DLYx2R1aXnHFL5PgnTptsy/OkcPCN8eAc/y+i567SG7GOfzEkyu9
SzCpjyp0nKIFWyNuo1FxhCTwLHJtY99GNM11FQbZRyfV+auPOWfdBMkj8RDj7mH1
fxpRLuWqBZiczvSLiO2PYiY7hDHYaaVb3sANtR9elDcIZ/2rVtwud939wZhSQAvi
sYoZNn0WMF/mVc80zhcLvGCi6Qp0VNKm9J1LCWCShO57F8qXQnLlqNLrg0lFxboF
TEm4MPnNakVfAItGv0juXHBhQaY9GpG0Wlre+wOH0D93Ru2+uGKZkOT5DB4BSgfF
xJfvi17jI5o+7DQpK+eddk/CFuPd0Ig3kdVfmVN7fl9ESu7Xfgz/7NYBRqmqpV24
M4l3aXBClgFY+5xexB8oPzxWE7VrnlHJFRJZlnLim8OT+cTSx3dmvUopbz6Sf4Z0
pZZWvqRDpATt/6N7I90hJOCAD7aw8uw65+s54QZkG5+7Cu2YWFOc8QWeh4fyNfXi
rDU4G2SjdBFZUa4BNd4vGkdU2Ag/8VUeSvt3j+A0l62Q3Sd4FIiB2Q==
-----END CERTIFICATE-----
