Certificate:
    Data:
        Version: 3 (0x2)
        Serial Number: 2 (0x2)
        Signature Algorithm: sha1WithRSAEncryption
        Issuer: C=BA, ST=RS, L=Banja Luka, O=Elektrotehnicki fakultet, OU=ETF, CN=CA/emailAddress=CA@gmail.com
        Validity
            Not Before: Jan 21 14:15:56 2026 GMT
            Not After : Jan 26 14:15:56 2026 GMT
        Subject: C=BA, ST=RS, O=Elektrotehnicki fakultet, OU=ETF, CN=Client2/emailAddress=client2@gmail.com
        Subject Public Key Info:
            Public Key Algorithm: rsaEncryption
                Public-Key: (2048 bit)
                Modulus:
                    00:e1:97:e1:da:de:65:d4:6e:37:82:cf:91:32:a1:
                    33:82:70:f6:54:f2:65:76:88:57:95:d6:93:4c:ff:
                    79:87:fb:ca:0a:fd:65:9b:53:ec:f1:d5:ae:1a:3f:
                    89:c1:a7:84:68:5f:29:9b:9a:de:95:7d:ca:9b:ae:
                    63:36:44:88:7d:96:61:0b:6d:0a:ff:c5:cd:2a:9e:
                    9d:6b:fb:17:4f:e2:e0:a6:58:53:4b:56:41:bd:a6:
                    06:69:25:06:29:a2:36:84:3d:f3:91:fb:b5:bf:52:
                    0f:e7:08:75:b8:6b:22:76:e9:f0:57:19:55:6a:28:
                    a5:c2:ce:d2:13:69:7c:bd:23:5b:0b:21:f0:36:77:
                    f2:87:b1:24:44:29:98:8b:6a:7c:39:27:22:64:29:
                    2e:b3:9e:c2:5b:4d:35:8e:ec:7a:83:48:08:f9:43:
                    30:3e:59:7a:40:e2:e1:a5:8d:98:f7:b7:ec:3d:50:
                    79:16:06:a2:16:06:40:17:bc:5c:23:08:d9:90:6d:
                    f3:9a:71:10:9c:a1:9d:77:e1:02:47:f6:5a:7f:da:
                    8a:a4:37:18:45:0e:b8:5a:27:5f:23:c4:1f:45:6c:
                    f8:51:ce:27:b2:9b:8f:46:ea:32:2f:7c:a2:1e:e9:
                    2c:bb:e6:df:7a:c4:5e:53:18:21:ff:50:8d:99:1b:
                    43:1f
                Exponent: 65537 (0x10001)
        X509v3 extensions:
            X509v3 Basic Constraints: 
                CA:FALSE
            X509v3 Key Usage: 
                Digital Signature
            X509v3 Extended Key Usage: 
                TLS Web Client Authentication
            Netscape Comment: 
                OpenSSL Generated Certificate
            X509v3 Subject Key Identifier: 
                DD:93:D7:8E:99:20:09:97:8F:F4:DA:95:32:F5:F3:1E:16:8A:59:B6
            X509v3 Authority Key Identifier: 
                BF:4C:63:6C:3E:9D:09:1B:6A:F8:69:25:BB:24:4A:1F:80:10:A6:98
            X509v3 CRL Distribution Points: 
                Full Name:
                  URI:http://192.168.21.89/rootcrl.pem
    Signature Algorithm: sha1WithRSAEncryption
    Signature Value:
        c8:da:ef:ab:c3:e5:82:09:49:94:5e:1d:1f:58:6a:82:fa:29:
        47:c0:fa:3e:54:21:53:3c:20:0f:39:0c:ff:a7:e6:9d:4c:7e:
        ad:1e:8e:a4:44:31:da:cd:9f:77:68:ae:e9:0d:58:5b:dc:46:
        e6:d4:ce:3e:3d:df:39:c3:15:93:d5:81:23:fb:04:ea:15:f2:
        04:be:32:7c:e2:f8:fb:2a:2d:a8:f5:c8:39:b9:bc:da:c0:fb:
        58:0d:c4:76:0c:0c:5f:e0:85:bc:e2:d4:1a:1c:f5:4f:da:6b:
        45:1c:bd:a4:96:6c:be:03:46:f0:e2:64:55:37:f5:59:ca:bb:
        20:b0:f8:78:76:bb:d7:1a:30:a9:af:46:3e:11:4c:d3:8b:e6:
        c0:7e:69:ab:17:4c:60:64:de:43:91:3e:84:94:73:6c:28:5a:
        a6:0f:b2:d7:1d:b2:a8:d1:46:2a:15:78:1e:69:cc:93:f8:fc:
        63:eb:2c:fc:a8:25:73:5e:5c:cb:5d:f4:12:4d:bb:e1:4b:b5:
        2a:1f:ab:74:13:05:27:91:64:0d:54:7e:e8:fa:6c:f6:06:01:
        54:d8:33:4a:24:a2:5f:c6:ec:c6:41:4e:53:98:77:f1:a0:5b:
        5c:cd:bd:08:a1:2f:72:d7:6c:49:7b:3a:f6:6a:b4:5b:50:8d:
        07:55:6e:7f
-----BEGIN CERTIFICATE-----
MIIEVzCCAz+gAwIBAgIBAjANBgkqhkiG9w0BAQUFADCBijELMAkGA1UEBhMCQkEx
CzAJBgNVBAgTAlJTMRMwEQYDVQQHEwpCYW5qYSBMdWthMSEwHwYDVQQKExhFbGVr
dHJvdGVobmlja2kgZmFrdWx0ZXQxDDAKBgNVBAsTA0VURjELMAkGA1UEAxMCQ0Ex
GzAZBgkqhkiG9w0BCQEWDENBQGdtYWlsLmNvbTAeFw0yNjAxMjExNDE1NTZaFw0y
NjAxMjYxNDE1NTZaMH8xCzAJBgNVBAYTAkJBMQswCQYDVQQIEwJSUzEhMB8GA1UE
ChMYRWxla3Ryb3RlaG5pY2tpIGZha3VsdGV0MQwwCgYDVQQLEwNFVEYxEDAOBgNV
BAMTB0NsaWVudDIxIDAeBgkqhkiG9w0BCQEWEWNsaWVudDJAZ21haWwuY29tMIIB
IjANBgkqhkiG9w0BAQEFAAOCAQ8AMIIBCgKCAQEA4Zfh2t5l1G43gs+RMqEzgnD2
VPJldohXldaTTP95h/vKCv1lm1Ps8dWuGj+JwaeEaF8pm5relX3Km65jNkSIfZZh
C20K/8XNKp6da/sXT+LgplhTS1ZBvaYGaSUGKaI2hD3zkfu1v1IP5wh1uGsidunw
VxlVaiilws7SE2l8vSNbCyHwNnfyh7EkRCmYi2p8OSciZCkus57CW001jux6g0gI
+UMwPll6QOLhpY2Y97fsPVB5FgaiFgZAF7xcIwjZkG3zmnEQnKGdd+ECR/Zaf9qK
pDcYRQ64WidfI8QfRWz4Uc4nspuPRuoyL3yiHuksu+bfesReUxgh/1CNmRtDHwID
AQABo4HRMIHOMAkGA1UdEwQCMAAwCwYDVR0PBAQDAgeAMBMGA1UdJQQMMAoGCCsG
AQUFBwMCMCwGCWCGSAGG+EIBDQQfFh1PcGVuU1NMIEdlbmVyYXRlZCBDZXJ0aWZp
Y2F0ZTAdBgNVHQ4EFgQU3ZPXjpkgCZeP9NqVMvXzHhaKWbYwHwYDVR0jBBgwFoAU
v0xjbD6dCRtq+GkluyRKH4AQppgwMQYDVR0fBCowKDAmoCSgIoYgaHR0cDovLzE5
Mi4xNjguMjEuODkvcm9vdGNybC5wZW0wDQYJKoZIhvcNAQEFBQADggEBAMja76vD
5YIJSZReHR9YaoL6KUfA+j5UIVM8IA85DP+n5p1Mfq0ejqREMdrNn3dorukNWFvc
RubUzj493znDFZPVgSP7BOoV8gS+Mnzi+PsqLaj1yDm5vNrA+1gNxHYMDF/ghbzi
1Boc9U/aa0UcvaSWbL4DRvDiZFU39VnKuyCw+Hh2u9caMKmvRj4RTNOL5sB+aasX
TGBk3kORPoSUc2woWqYPstcdsqjRRioVeB5pzJP4/GPrLPyoJXNeXMtd9BJNu+FL
tSofq3QTBSeRZA1Ufuj6bPYGAVTYM0okol/G7MZBTlOYd/GgW1zNvQihL3LXbEl7
OvZqtFtQjQdVbn8=
-----END CERTIFICATE-----
