Certificate:
    Data:
        Version: 3 (0x2)
        Serial Number: 120 (0x78)
        Signature Algorithm: sha1WithRSAEncryption
        Issuer: C=BA, ST=RS, O=Elektrotehnicki fakultet, OU=CA, CN=CA cert/emailAddress=ca@mail.com, SN=CA, GN=ca/pseudonym=CA
        Validity
            Not Before: Jan 14 15:42:05 2026 GMT
            Not After : Feb 13 15:42:05 2026 GMT
        Subject: C=BA, ST=RS, O=Elektrotehnicki fakultet, OU=CA, CN=DSKJJFSK
        Subject Public Key Info:
            Public Key Algorithm: rsaEncryption
                Public-Key: (2048 bit)
                Modulus:
                    00:aa:78:1d:78:10:50:18:94:3f:1f:1c:82:84:a5:
                    2c:bd:ce:17:cf:06:fd:f0:21:f0:bf:6a:92:82:d6:
                    d1:98:d4:13:8c:7d:5d:8f:55:cb:e6:a4:67:8b:d4:
                    98:b8:4b:c6:ac:22:b7:21:22:98:ef:f7:19:c4:4d:
                    51:2c:d5:46:69:79:62:a9:fe:37:1e:ce:f8:48:3f:
                    d2:04:4e:fc:b7:3b:aa:26:12:eb:e4:a5:d9:ad:ad:
                    fc:cb:4a:35:b8:44:ef:52:ff:fd:79:d5:f9:76:72:
                    48:f2:5f:cb:83:04:15:19:b3:5c:a2:7a:fd:e3:88:
                    c8:8e:d4:43:c8:f1:ca:72:87:6d:77:7f:79:5b:80:
                    fe:eb:19:bc:e5:a1:37:fd:4d:72:77:20:00:14:20:
                    c0:58:8c:27:5c:fd:68:63:ea:18:ad:86:4a:c8:4e:
                    45:b3:7b:af:82:d3:d5:9d:24:37:98:b9:e7:44:b1:
                    84:74:04:54:b2:6e:72:3a:c9:f5:a9:da:d0:8b:cb:
                    ec:ef:95:88:06:4e:49:c1:ef:25:f6:e8:65:27:99:
                    12:02:8d:14:5d:c6:22:06:05:96:ce:81:f3:e0:81:
                    2a:53:34:4b:dd:ae:78:ab:c7:1f:f3:b0:9d:2b:69:
                    bb:0e:82:f3:09:82:f8:0a:5a:24:26:fc:bb:1a:cc:
                    a1:6f
                Exponent: 65537 (0x10001)
        X509v3 extensions:
            X509v3 Basic Constraints: 
                CA:TRUE
            X509v3 Key Usage: 
                CRL Sign
            X509v3 Extended Key Usage: 
                TLS Web Server Authentication
            Netscape Comment: 
                OpenSSL Generated Certificate
            X509v3 Subject Key Identifier: 
                16:6C:FF:23:09:3D:E4:BB:A0:A9:EE:83:F2:CB:FC:BF:6F:94:8A:55
            X509v3 Authority Key Identifier: 
                16:6C:FF:23:09:3D:E4:BB:A0:A9:EE:83:F2:CB:FC:BF:6F:94:8A:55
            X509v3 CRL Distribution Points: 
                Full Name:
                  URI:http://192.168.21.89/rootcrl.pem
    Signature Algorithm: sha1WithRSAEncryption
    Signature Value:
        13:ba:f2:38:87:d5:5b:2a:90:51:01:f2:27:12:31:2d:46:0b:
        19:30:79:a5:24:2d:d9:f8:26:6f:51:2e:f8:37:c7:9f:e0:d7:
        05:74:48:31:91:06:30:27:11:7e:9a:4a:ed:3e:9a:22:c0:22:
        03:9c:26:ef:bc:48:2a:aa:62:07:58:4e:20:30:72:83:0a:5a:
        39:4c:94:f3:b7:31:c6:8d:17:e3:68:74:07:bd:48:ee:b7:52:
        10:ce:8f:75:08:24:56:49:a1:03:9a:de:31:03:c1:36:17:cf:
        cb:b6:99:a3:aa:76:a6:6a:aa:27:32:52:40:f4:59:e7:4b:b8:
        3d:89:d5:b2:33:f9:66:1c:e2:20:ee:65:a5:22:35:a8:8f:28:
        81:0d:31:33:fa:6e:13:cc:5f:6e:c0:70:30:31:63:05:5c:1a:
        1f:d1:83:1f:1b:15:0d:f8:05:7c:b1:09:4a:f7:67:d8:8d:ff:
        4e:5d:90:96:9e:0d:44:7e:7a:a4:11:40:98:e9:2f:1f:c6:f1:
        46:4e:cd:55:2e:2b:7d:df:05:f3:f9:54:5d:34:83:69:07:68:
        44:cf:e9:6f:a4:e5:eb:cb:1f:43:35:2d:07:75:c1:5f:dc:b0:
        4b:14:97:71:fa:a0:2b:fa:bb:11:07:0d:e0:c3:42:81:1c:7c:
        5f:a7:01:93
-----BEGIN CERTIFICATE-----
MIIETTCCAzWgAwIBAgIBeDANBgkqhkiG9w0BAQUFADCBnzELMAkGA1UEBhMCQkEx
CzAJBgNVBAgTAlJTMSEwHwYDVQQKExhFbGVrdHJvdGVobmlja2kgZmFrdWx0ZXQx
CzAJBgNVBAsTAkNBMRAwDgYDVQQDEwdDQSBjZXJ0MRowGAYJKoZIhvcNAQkBFgtj
YUBtYWlsLmNvbTELMAkGA1UEBBMCQ0ExCzAJBgNVBCoTAmNhMQswCQYDVQRBEwJD
QTAeFw0yNjAxMTQxNTQyMDVaFw0yNjAyMTMxNTQyMDVaMF0xCzAJBgNVBAYTAkJB
MQswCQYDVQQIEwJSUzEhMB8GA1UEChMYRWxla3Ryb3RlaG5pY2tpIGZha3VsdGV0
MQswCQYDVQQLEwJDQTERMA8GA1UEAxMIRFNLSkpGU0swggEiMA0GCSqGSIb3DQEB
AQUAA4IBDwAwggEKAoIBAQCqeB14EFAYlD8fHIKEpSy9zhfPBv3wIfC/apKC1tGY
1BOMfV2PVcvmpGeL1Ji4S8asIrchIpjv9xnETVEs1UZpeWKp/jcezvhIP9IETvy3
O6omEuvkpdmtrfzLSjW4RO9S//151fl2ckjyX8uDBBUZs1yiev3jiMiO1EPI8cpy
h213f3lbgP7rGbzloTf9TXJ3IAAUIMBYjCdc/Whj6hithkrITkWze6+C09WdJDeY
uedEsYR0BFSybnI6yfWp2tCLy+zvlYgGTknB7yX26GUnmRICjRRdxiIGBZbOgfPg
gSpTNEvdrnirxx/zsJ0rabsOgvMJgvgKWiQm/LsazKFvAgMBAAGjgdQwgdEwDAYD
VR0TBAUwAwEB/zALBgNVHQ8EBAMCAQIwEwYDVR0lBAwwCgYIKwYBBQUHAwEwLAYJ
YIZIAYb4QgENBB8WHU9wZW5TU0wgR2VuZXJhdGVkIENlcnRpZmljYXRlMB0GA1Ud
DgQWBBQWbP8jCT3ku6Cp7oPyy/y/b5SKVTAfBgNVHSMEGDAWgBQWbP8jCT3ku6Cp
7oPyy/y/b5SKVTAxBgNVHR8EKjAoMCagJKAihiBodHRwOi8vMTkyLjE2OC4yMS44
OS9yb290Y3JsLnBlbTANBgkqhkiG9w0BAQUFAAOCAQEAE7ryOIfVWyqQUQHyJxIx
LUYLGTB5pSQt2fgmb1Eu+DfHn+DXBXRIMZEGMCcRfppK7T6aIsAiA5wm77xIKqpi
B1hOIDBygwpaOUyU87cxxo0X42h0B71I7rdSEM6PdQgkVkmhA5reMQPBNhfPy7aZ
o6p2pmqqJzJSQPRZ50u4PYnVsjP5ZhziIO5lpSI1qI8ogQ0xM/puE8xfbsBwMDFj
BVwaH9GDHxsVDfgFfLEJSvdn2I3/Tl2Qlp4NRH56pBFAmOkvH8bxRk7NVS4rfd8F
8/lUXTSDaQdoRM/pb6Tl68sfQzUtB3XBX9ywSxSXcfqgK/q7EQcN4MNCgRx8X6cB
kw==
-----END CERTIFICATE-----
