Certificate:
    Data:
        Version: 3 (0x2)
        Serial Number: 146 (0x92)
        Signature Algorithm: sha1WithRSAEncryption
        Issuer: C=BA, ST=RS, O=Elektrotehnicki fakultet, OU=CA, CN=CA cert/emailAddress=ca@mail.com, SN=CA, GN=ca/pseudonym=CA
        Validity
            Not Before: Jan 14 15:19:57 2026 GMT
            Not After : Dec 24 15:19:57 2029 GMT
        Subject: C=BA, ST=RS, O=Elektrotehnicki fakultet, OU=CA, CN=luka
        Subject Public Key Info:
            Public Key Algorithm: rsaEncryption
                Public-Key: (2048 bit)
                Modulus:
                    00:aa:78:1d:78:10:50:18:94:3f:1f:1c:82:84:a5:
                    2c:bd:ce:17:cf:06:fd:f0:21:f0:bf:6a:92:82:d6:
                    d1:98:d4:13:8c:7d:5d:8f:55:cb:e6:a4:67:8b:d4:
                    98:b8:4b:c6:ac:22:b7:21:22:98:ef:f7:19:c4:4d:
                    51:2c:d5:46:69:79:62:a9:fe:37:1e:ce:f8:48:3f:
                    d2:04:4e:fc:b7:3b:aa:26:12:eb:e4:a5:d9:ad:ad:
                    fc:cb:4a:35:b8:44:ef:52:ff:fd:79:d5:f9:76:72:
                    48:f2:5f:cb:83:04:15:19:b3:5c:a2:7a:fd:e3:88:
                    c8:8e:d4:43:c8:f1:ca:72:87:6d:77:7f:79:5b:80:
                    fe:eb:19:bc:e5:a1:37:fd:4d:72:77:20:00:14:20:
                    c0:58:8c:27:5c:fd:68:63:ea:18:ad:86:4a:c8:4e:
                    45:b3:7b:af:82:d3:d5:9d:24:37:98:b9:e7:44:b1:
                    84:74:04:54:b2:6e:72:3a:c9:f5:a9:da:d0:8b:cb:
                    ec:ef:95:88:06:4e:49:c1:ef:25:f6:e8:65:27:99:
                    12:02:8d:14:5d:c6:22:06:05:96:ce:81:f3:e0:81:
                    2a:53:34:4b:dd:ae:78:ab:c7:1f:f3:b0:9d:2b:69:
                    bb:0e:82:f3:09:82:f8:0a:5a:24:26:fc:bb:1a:cc:
                    a1:6f
                Exponent: 65537 (0x10001)
        X509v3 extensions:
            X509v3 Basic Constraints: 
                CA:FALSE
            X509v3 Key Usage: 
                Key Agreement, Decipher Only
            X509v3 Extended Key Usage: 
                TLS Web Server Authentication
            Netscape Comment: 
                OpenSSL Generated Certificate
            X509v3 Subject Key Identifier: 
                16:6C:FF:23:09:3D:E4:BB:A0:A9:EE:83:F2:CB:FC:BF:6F:94:8A:55
            X509v3 Authority Key Identifier: 
                16:6C:FF:23:09:3D:E4:BB:A0:A9:EE:83:F2:CB:FC:BF:6F:94:8A:55
            X509v3 CRL Distribution Points: 
                Full Name:
                  URI:http://192.168.21.89/rootcrl.pem
    Signature Algorithm: sha1WithRSAEncryption
    Signature Value:
        12:3b:f7:b0:9d:d7:04:a0:a4:25:f0:9d:91:72:53:02:d3:59:
        22:68:de:4e:ed:fa:d3:33:5a:fe:84:7c:ec:19:51:27:0c:c9:
        e5:29:f4:5f:22:98:ac:78:06:20:f2:52:0c:e5:9d:e3:a7:4e:
        97:c2:43:f4:c2:65:ae:62:73:69:d7:c1:7f:b6:c6:50:94:80:
        2a:da:28:f8:d8:a3:e4:0c:e2:4c:0e:e5:14:48:b0:2d:43:cf:
        c5:29:65:5e:f8:5b:a2:0c:a1:3b:33:56:99:e8:80:61:9c:c2:
        dc:b4:b5:07:1d:f6:a6:3d:ed:07:68:86:52:44:cf:e1:9a:ee:
        62:04:82:f4:6a:e2:84:20:5b:2c:cf:b0:a0:ad:48:28:fa:7c:
        74:99:43:46:c7:4e:97:70:14:46:ac:d8:bb:77:35:81:ca:af:
        f5:61:7d:37:cd:79:fc:9d:8c:2e:89:8c:8c:16:db:48:14:d0:
        45:e6:1d:5b:f4:3e:a5:94:fb:50:d2:5d:e4:36:69:b1:bf:51:
        c9:ed:c0:7e:ab:c3:d9:1d:7c:2e:ab:cc:5f:6e:15:29:2a:43:
        9d:ad:68:e5:f8:5d:c2:ce:a6:a3:47:72:cf:90:bc:7f:60:cd:
        52:9e:ac:34:ad:c1:11:20:e0:1b:37:61:3e:bc:27:a1:18:73:
        d5:40:ce:65
-----BEGIN CERTIFICATE-----
MIIESDCCAzCgAwIBAgICAJIwDQYJKoZIhvcNAQEFBQAwgZ8xCzAJBgNVBAYTAkJB
MQswCQYDVQQIEwJSUzEhMB8GA1UEChMYRWxla3Ryb3RlaG5pY2tpIGZha3VsdGV0
MQswCQYDVQQLEwJDQTEQMA4GA1UEAxMHQ0EgY2VydDEaMBgGCSqGSIb3DQEJARYL
Y2FAbWFpbC5jb20xCzAJBgNVBAQTAkNBMQswCQYDVQQqEwJjYTELMAkGA1UEQRMC
Q0EwHhcNMjYwMTE0MTUxOTU3WhcNMjkxMjI0MTUxOTU3WjBZMQswCQYDVQQGEwJC
QTELMAkGA1UECBMCUlMxITAfBgNVBAoTGEVsZWt0cm90ZWhuaWNraSBmYWt1bHRl
dDELMAkGA1UECxMCQ0ExDTALBgNVBAMTBGx1a2EwggEiMA0GCSqGSIb3DQEBAQUA
A4IBDwAwggEKAoIBAQCqeB14EFAYlD8fHIKEpSy9zhfPBv3wIfC/apKC1tGY1BOM
fV2PVcvmpGeL1Ji4S8asIrchIpjv9xnETVEs1UZpeWKp/jcezvhIP9IETvy3O6om
EuvkpdmtrfzLSjW4RO9S//151fl2ckjyX8uDBBUZs1yiev3jiMiO1EPI8cpyh213
f3lbgP7rGbzloTf9TXJ3IAAUIMBYjCdc/Whj6hithkrITkWze6+C09WdJDeYuedE
sYR0BFSybnI6yfWp2tCLy+zvlYgGTknB7yX26GUnmRICjRRdxiIGBZbOgfPggSpT
NEvdrnirxx/zsJ0rabsOgvMJgvgKWiQm/LsazKFvAgMBAAGjgdIwgc8wCQYDVR0T
BAIwADAMBgNVHQ8EBQMDBwiAMBMGA1UdJQQMMAoGCCsGAQUFBwMBMCwGCWCGSAGG
+EIBDQQfFh1PcGVuU1NMIEdlbmVyYXRlZCBDZXJ0aWZpY2F0ZTAdBgNVHQ4EFgQU
Fmz/Iwk95Lugqe6D8sv8v2+UilUwHwYDVR0jBBgwFoAUFmz/Iwk95Lugqe6D8sv8
v2+UilUwMQYDVR0fBCowKDAmoCSgIoYgaHR0cDovLzE5Mi4xNjguMjEuODkvcm9v
dGNybC5wZW0wDQYJKoZIhvcNAQEFBQADggEBABI797Cd1wSgpCXwnZFyUwLTWSJo
3k7t+tMzWv6EfOwZUScMyeUp9F8imKx4BiDyUgzlneOnTpfCQ/TCZa5ic2nXwX+2
xlCUgCraKPjYo+QM4kwO5RRIsC1Dz8UpZV74W6IMoTszVpnogGGcwty0tQcd9qY9
7QdohlJEz+Ga7mIEgvRq4oQgWyzPsKCtSCj6fHSZQ0bHTpdwFEas2Lt3NYHKr/Vh
fTfNefydjC6JjIwW20gU0EXmHVv0PqWU+1DSXeQ2abG/UcntwH6rw9kdfC6rzF9u
FSkqQ52taOX4XcLOpqNHcs+QvH9gzVKerDStwREg4Bs3YT68J6EYc9VAzmU=
-----END CERTIFICATE-----
