Certificate:
    Data:
        Version: 3 (0x2)
        Serial Number: 82028295063 (0x1319447397)
    Signature Algorithm: sha1WithRSAEncryption
        Issuer: C=BA, ST=Republika Srpska, O=Elektrotehnicki fakultet, OU=Katedra za racunarstvo i informatiku, CN=Prvi zahtjev/emailAddress=mail@mail.com
        Validity
            Not Before: Jan 21 20:45:31 2017 GMT
            Not After : Jan 19 20:45:31 2027 GMT
        Subject: C=BA, ST=Republika Srpska, O=Elektrotehnicki fakultet, OU=Katedra za racunarstvo i informatiku, CN=Klijent 4/emailAddress=ca4@etfbl.net
        Subject Public Key Info:
            Public Key Algorithm: rsaEncryption
                Public-Key: (2048 bit)
                Modulus:
                    00:bf:0b:4f:00:dc:a2:20:3a:8f:56:e5:3f:13:92:
                    ce:e9:8e:55:bd:fa:8f:b7:4b:89:29:47:cc:ef:f7:
                    cf:0c:9d:38:8e:d8:9d:47:c6:d5:f8:97:c8:6e:e2:
                    3b:c6:d0:1a:5d:b2:2f:13:c5:29:06:d0:64:ef:1b:
                    39:62:ab:b9:ef:b5:25:bb:ef:d5:cc:e3:2f:8c:8f:
                    19:79:ac:de:68:d5:a5:cb:85:d7:51:7c:10:c5:22:
                    e5:1c:16:0f:2c:23:2d:0e:d1:75:6d:55:d4:bc:c8:
                    91:61:b7:4d:1c:d7:a6:8a:8a:70:3b:6a:65:96:e8:
                    0b:d6:96:48:f3:2f:39:d3:f6:3a:e7:9f:ce:c1:da:
                    2a:e4:46:b0:d4:23:f7:a8:3c:3a:6a:01:69:49:9a:
                    34:f9:a3:e2:36:57:68:87:69:a2:95:e4:40:4a:63:
                    d3:c5:c4:3b:f4:49:2d:b8:1c:47:48:bb:5a:54:4b:
                    93:05:88:1d:b7:4f:b3:40:29:bf:7f:f4:c5:55:04:
                    9c:9c:c6:b1:5e:3e:24:17:19:7f:76:a6:92:1b:4a:
                    48:9c:2d:e2:39:f1:8e:47:57:0b:dc:75:4b:49:81:
                    8e:65:29:b7:44:87:f9:56:2f:32:73:06:5f:70:ee:
                    4d:47:8f:a5:2b:0a:ed:53:df:a4:42:60:17:f3:19:
                    0e:ef
                Exponent: 65537 (0x10001)
        X509v3 extensions:
            X509v3 Basic Constraints: 
                CA:FALSE
            Netscape Cert Type: 
                SSL Client, S/MIME
            X509v3 Key Usage: 
                Digital Signature, Non Repudiation, Key Encipherment
            Netscape Comment: 
                OpenSSL Generated Certificate
            X509v3 Subject Key Identifier: 
                12:64:50:83:EE:78:A5:09:AB:52:DD:43:F6:98:69:E5:6B:0C:1C:EB
            X509v3 Authority Key Identifier: 
                keyid:4E:D3:8C:0F:A4:1D:5A:0A:B9:8E:D9:C8:45:B2:31:34:F7:69:A4:72

    Signature Algorithm: sha1WithRSAEncryption
         b6:4e:a8:14:40:e8:fd:5b:16:f7:69:6c:2a:dc:83:7f:3c:0f:
         c1:9c:0e:4b:47:18:4c:45:16:72:44:ee:1d:2a:38:bd:4d:83:
         a0:d2:28:17:9d:06:72:f0:c7:fc:98:b9:23:ac:58:a5:4c:be:
         0e:39:52:ad:a6:24:aa:aa:ba:db:33:ca:b8:81:10:11:3d:3f:
         62:08:0e:c1:7e:a4:b6:80:4d:9a:31:38:ab:24:f7:99:4d:ef:
         b1:24:e7:6d:5a:5f:ac:a2:a5:d4:7d:36:e5:06:b8:04:db:51:
         c2:a0:22:0c:43:54:69:90:a4:97:7c:f3:fc:12:94:a6:3a:2c:
         c4:ff:52:86:62:05:83:cf:c6:1c:2f:48:69:7a:8c:89:c4:77:
         fc:0e:a5:08:04:5a:cf:10:35:00:e3:4a:d3:b7:53:f8:40:b4:
         6c:d7:b2:2b:a1:dc:38:14:1d:df:34:c4:f1:50:c8:a5:1c:e7:
         8f:b3:f5:70:d6:93:26:c8:f4:88:af:76:5a:f8:2d:6d:e3:41:
         3a:a1:57:24:a2:81:29:67:6a:a5:c4:be:6a:7e:10:c3:3c:ca:
         7e:83:27:52:35:37:86:05:61:02:28:31:67:6d:d7:ec:50:44:
         e5:04:f1:23:d2:00:8b:ee:c2:6c:ab:b1:06:35:ae:48:81:1a:
         af:d9:39:9a
-----BEGIN CERTIFICATE-----
MIIEeTCCA2GgAwIBAgIFExlEc5cwDQYJKoZIhvcNAQEFBQAwga8xCzAJBgNVBAYT
AkJBMRkwFwYDVQQIExBSZXB1Ymxpa2EgU3Jwc2thMSEwHwYDVQQKExhFbGVrdHJv
dGVobmlja2kgZmFrdWx0ZXQxLTArBgNVBAsTJEthdGVkcmEgemEgcmFjdW5hcnN0
dm8gaSBpbmZvcm1hdGlrdTEVMBMGA1UEAxMMUHJ2aSB6YWh0amV2MRwwGgYJKoZI
hvcNAQkBFg1tYWlsQG1haWwuY29tMB4XDTE3MDEyMTIwNDUzMVoXDTI3MDExOTIw
NDUzMVowgawxCzAJBgNVBAYTAkJBMRkwFwYDVQQIExBSZXB1Ymxpa2EgU3Jwc2th
MSEwHwYDVQQKExhFbGVrdHJvdGVobmlja2kgZmFrdWx0ZXQxLTArBgNVBAsTJEth
dGVkcmEgemEgcmFjdW5hcnN0dm8gaSBpbmZvcm1hdGlrdTESMBAGA1UEAxMJS2xp
amVudCA0MRwwGgYJKoZIhvcNAQkBFg1jYTRAZXRmYmwubmV0MIIBIjANBgkqhkiG
9w0BAQEFAAOCAQ8AMIIBCgKCAQEAvwtPANyiIDqPVuU/E5LO6Y5VvfqPt0uJKUfM
7/fPDJ04jtidR8bV+JfIbuI7xtAaXbIvE8UpBtBk7xs5Yqu577Ulu+/VzOMvjI8Z
eazeaNWly4XXUXwQxSLlHBYPLCMtDtF1bVXUvMiRYbdNHNemiopwO2pllugL1pZI
8y850/Y655/Owdoq5Eaw1CP3qDw6agFpSZo0+aPiNldoh2mileRASmPTxcQ79Ekt
uBxHSLtaVEuTBYgdt0+zQCm/f/TFVQScnMaxXj4kFxl/dqaSG0pInC3iOfGOR1cL
3HVLSYGOZSm3RIf5Vi8ycwZfcO5NR4+lKwrtU9+kQmAX8xkO7wIDAQABo4GcMIGZ
MAkGA1UdEwQCMAAwEQYJYIZIAYb4QgEBBAQDAgWgMAsGA1UdDwQEAwIF4DAsBglg
hkgBhvhCAQ0EHxYdT3BlblNTTCBHZW5lcmF0ZWQgQ2VydGlmaWNhdGUwHQYDVR0O
BBYEFBJkUIPueKUJq1LdQ/aYaeVrDBzrMB8GA1UdIwQYMBaAFE7TjA+kHVoKuY7Z
yEWyMTT3aaRyMA0GCSqGSIb3DQEBBQUAA4IBAQC2TqgUQOj9Wxb3aWwq3IN/PA/B
nA5LRxhMRRZyRO4dKji9TYOg0igXnQZy8Mf8mLkjrFilTL4OOVKtpiSqqrrbM8q4
gRARPT9iCA7BfqS2gE2aMTirJPeZTe+xJOdtWl+soqXUfTblBrgE21HCoCIMQ1Rp
kKSXfPP8EpSmOizE/1KGYgWDz8YcL0hpeoyJxHf8DqUIBFrPEDUA40rTt1P4QLRs
17Irodw4FB3fNMTxUMilHOePs/Vw1pMmyPSIr3Za+C1t40E6oVckooEpZ2qlxL5q
fhDDPMp+gydSNTeGBWECKDFnbdfsUETlBPEj0gCL7sJsq7EGNa5IgRqv2Tma
-----END CERTIFICATE-----
