Certificate:
    Data:
        Version: 3 (0x2)
        Serial Number: 82028295062 (0x1319447396)
    Signature Algorithm: sha1WithRSAEncryption
        Issuer: C=BA, ST=Republika Srpska, L=Banja Luka, O=Elektrotehnicki fakultet, OU=Katedra za racunarstvo i informatiku, CN=Web server CA/emailAddress=ca@etfbl.net
        Validity
            Not Before: Jan 21 21:27:24 2017 GMT
            Not After : Jan 21 21:27:24 2018 GMT
        Subject: C=BA, ST=Republika Srpska, L=Banja Luka, O=Elektrotehnicki fakultet, OU=Katedra za racunarstvo i informatiku, CN=Klijent 12/emailAddress=ca12@etfbl.net
        Subject Public Key Info:
            Public Key Algorithm: rsaEncryption
                Public-Key: (2048 bit)
                Modulus:
                    00:be:c2:bf:8b:34:d6:3b:70:59:b4:45:8f:16:78:
                    3d:47:1c:d3:2b:ca:84:80:28:21:f7:bd:36:9b:6c:
                    5d:8c:51:e3:1c:e0:78:bc:6b:4a:c8:f6:ef:ab:d1:
                    54:6e:c7:7d:86:69:f6:73:c7:24:2a:ca:2e:ec:04:
                    f5:a2:5a:4b:de:38:d9:31:91:a5:2a:75:56:12:34:
                    a2:39:f8:e5:57:e6:0f:83:7d:04:89:c7:78:5f:6d:
                    0b:91:87:0b:00:ef:a8:88:83:f3:be:39:f5:a8:b6:
                    1a:5c:44:fd:00:78:b3:ef:cd:15:a7:01:9c:4b:e7:
                    fe:f0:94:da:28:fb:3a:3d:1b:4b:03:d3:7f:6a:a8:
                    4b:a3:58:4d:84:e7:18:b4:4f:76:ff:f2:28:fc:e0:
                    8a:4d:80:a3:c3:b7:74:b0:9d:11:4b:33:7d:70:27:
                    27:93:d9:db:41:e2:d2:20:e5:54:a7:20:14:ea:63:
                    4f:10:45:b2:69:ad:ec:ca:b3:ba:5f:94:0d:fd:3b:
                    31:89:5c:f9:13:b9:db:61:66:77:49:e5:4a:93:86:
                    07:6c:aa:6c:fc:4a:4c:cb:2c:ec:88:53:72:c5:1a:
                    88:ed:fa:d6:10:5b:bc:87:db:9a:1f:26:59:7c:e2:
                    44:39:32:ee:54:10:87:f3:db:45:fc:dc:b5:70:c3:
                    e9:a9
                Exponent: 65537 (0x10001)
        X509v3 extensions:
            X509v3 Basic Constraints: 
                CA:FALSE
            Netscape Cert Type: 
                SSL Client, S/MIME
            X509v3 Key Usage: 
                Digital Signature, Non Repudiation, Key Encipherment
            X509v3 Extended Key Usage: 
                TLS Web Server Authentication, TLS Web Client Authentication
            Netscape Comment: 
                OpenSSL Generated Certificate
            X509v3 Subject Key Identifier: 
                14:A1:BF:EB:FC:5E:10:75:EB:5A:DA:5D:2C:99:26:3F:FC:26:48:A4
            X509v3 Authority Key Identifier: 
                keyid:4A:D4:5B:22:1D:17:67:86:3F:7E:A2:38:25:67:21:19:65:9F:E9:F9

    Signature Algorithm: sha1WithRSAEncryption
         25:39:68:2c:4f:73:64:ce:7f:43:93:6f:0b:b6:83:9c:68:33:
         4c:ec:e1:26:3c:4a:73:84:02:2c:06:f6:97:88:6b:58:a0:e9:
         47:7f:7c:13:c1:15:49:6f:ff:77:b6:d0:fd:a8:6a:28:41:b3:
         ef:ea:21:63:6e:85:ca:bc:4c:f2:2a:8b:f2:2f:31:4e:e0:b9:
         a9:a6:dc:3b:03:b3:7e:3b:c1:ee:b6:aa:c1:70:59:cb:7f:be:
         c3:95:c6:64:85:a1:7c:7e:30:ac:64:95:dd:23:c2:66:a9:b8:
         b9:b0:8a:b1:cf:46:df:e6:b7:f4:08:0b:6e:5c:d2:0d:1d:dd:
         4f:cb:14:ac:46:2c:c3:28:e9:4d:22:28:35:e5:b9:48:e7:25:
         f3:62:f1:7d:7b:c5:d7:c7:8b:ae:ef:54:c4:94:c4:d0:fc:c1:
         f0:9d:8b:2c:ac:13:55:28:9a:06:bc:6b:bd:45:b1:80:62:1d:
         a4:6b:96:66:1a:23:c9:1e:e6:d8:7f:d2:da:45:d3:4a:3c:14:
         57:ee:34:46:67:07:11:02:00:2e:23:7f:c4:1e:99:1c:b3:ec:
         e0:1c:73:bf:94:63:2e:54:8f:11:86:37:69:be:2a:b7:f8:29:
         03:82:18:2f:ea:90:6b:d4:37:37:81:10:4f:d2:e1:11:56:db:
         ce:05:87:6e:87:e0:0f:8a:ae:c8:f7:8d:2f:2c:66:f4:b6:35:
         99:69:fe:01:79:c4:b9:c6:21:7c:a0:c8:21:25:bd:0c:71:44:
         01:5c:5e:7f:5d:87:67:01:09:04:de:5f:1f:0f:3a:5e:d3:fc:
         93:0d:ef:06:6f:7d:13:6e:4b:eb:4b:f9:5d:5b:45:7f:0b:68:
         cb:7a:49:16:45:31:31:79:27:f0:f9:3f:72:71:00:d7:81:7f:
         72:bf:e5:9f:71:29:a1:9e:ac:06:1d:bb:81:71:b0:12:be:92:
         bb:c7:80:b3:2b:96:08:35:55:c6:7e:2b:8b:d6:5d:ba:8c:63:
         9d:b9:69:b8:ec:7f:2a:a2:89:ec:7a:b3:b7:7d:25:91:2c:c7:
         18:d7:da:a2:f9:a4:6c:17:0d:65:9f:82:77:4f:59:5f:97:e2:
         47:c7:5f:79:91:c1:6f:4d:19:89:0a:96:e4:7d:6c:5c:89:54:
         13:f6:1c:2e:e3:b9:e2:dc:65:62:a9:bf:03:98:96:c9:a5:e1:
         30:c0:c1:a3:4b:c7:15:be:fc:e4:1d:cb:e9:7a:99:47:7f:63:
         cc:32:5d:03:eb:3b:0a:68:cf:d1:28:95:3d:ad:a1:11:8f:ac:
         c0:26:a8:18:78:5e:04:e3:ba:21:e5:42:e4:9d:95:24:db:da:
         c8:51:26:82:f4:37:e8:fd
-----BEGIN CERTIFICATE-----
MIIFxDCCA6ygAwIBAgIFExlEc5YwDQYJKoZIhvcNAQEFBQAwgcQxCzAJBgNVBAYT
AkJBMRkwFwYDVQQIExBSZXB1Ymxpa2EgU3Jwc2thMRMwEQYDVQQHEwpCYW5qYSBM
dWthMSEwHwYDVQQKExhFbGVrdHJvdGVobmlja2kgZmFrdWx0ZXQxLTArBgNVBAsT
JEthdGVkcmEgemEgcmFjdW5hcnN0dm8gaSBpbmZvcm1hdGlrdTEWMBQGA1UEAxMN
V2ViIHNlcnZlciBDQTEbMBkGCSqGSIb3DQEJARYMY2FAZXRmYmwubmV0MB4XDTE3
MDEyMTIxMjcyNFoXDTE4MDEyMTIxMjcyNFowgcMxCzAJBgNVBAYTAkJBMRkwFwYD
VQQIExBSZXB1Ymxpa2EgU3Jwc2thMRMwEQYDVQQHEwpCYW5qYSBMdWthMSEwHwYD
VQQKExhFbGVrdHJvdGVobmlja2kgZmFrdWx0ZXQxLTArBgNVBAsTJEthdGVkcmEg
emEgcmFjdW5hcnN0dm8gaSBpbmZvcm1hdGlrdTETMBEGA1UEAxMKS2xpamVudCAx
MjEdMBsGCSqGSIb3DQEJARYOY2ExMkBldGZibC5uZXQwggEiMA0GCSqGSIb3DQEB
AQUAA4IBDwAwggEKAoIBAQC+wr+LNNY7cFm0RY8WeD1HHNMryoSAKCH3vTabbF2M
UeMc4Hi8a0rI9u+r0VRux32GafZzxyQqyi7sBPWiWkveONkxkaUqdVYSNKI5+OVX
5g+DfQSJx3hfbQuRhwsA76iIg/O+OfWothpcRP0AeLPvzRWnAZxL5/7wlNoo+zo9
G0sD039qqEujWE2E5xi0T3b/8ij84IpNgKPDt3SwnRFLM31wJyeT2dtB4tIg5VSn
IBTqY08QRbJprezKs7pflA39OzGJXPkTudthZndJ5UqThgdsqmz8SkzLLOyIU3LF
Gojt+tYQW7yH25ofJll84kQ5Mu5UEIfz20X83LVww+mpAgMBAAGjgbswgbgwCQYD
VR0TBAIwADARBglghkgBhvhCAQEEBAMCBaAwCwYDVR0PBAQDAgXgMB0GA1UdJQQW
MBQGCCsGAQUFBwMBBggrBgEFBQcDAjAsBglghkgBhvhCAQ0EHxYdT3BlblNTTCBH
ZW5lcmF0ZWQgQ2VydGlmaWNhdGUwHQYDVR0OBBYEFBShv+v8XhB161raXSyZJj/8
JkikMB8GA1UdIwQYMBaAFErUWyIdF2eGP36iOCVnIRlln+n5MA0GCSqGSIb3DQEB
BQUAA4ICAQAlOWgsT3Nkzn9Dk28LtoOcaDNM7OEmPEpzhAIsBvaXiGtYoOlHf3wT
wRVJb/93ttD9qGooQbPv6iFjboXKvEzyKovyLzFO4Lmpptw7A7N+O8HutqrBcFnL
f77DlcZkhaF8fjCsZJXdI8Jmqbi5sIqxz0bf5rf0CAtuXNINHd1PyxSsRizDKOlN
Iig15blI5yXzYvF9e8XXx4uu71TElMTQ/MHwnYssrBNVKJoGvGu9RbGAYh2ka5Zm
GiPJHubYf9LaRdNKPBRX7jRGZwcRAgAuI3/EHpkcs+zgHHO/lGMuVI8Rhjdpviq3
+CkDghgv6pBr1Dc3gRBP0uERVtvOBYduh+APiq7I940vLGb0tjWZaf4BecS5xiF8
oMghJb0McUQBXF5/XYdnAQkE3l8fDzpe0/yTDe8Gb30TbkvrS/ldW0V/C2jLekkW
RTExeSfw+T9ycQDXgX9yv+WfcSmhnqwGHbuBcbASvpK7x4CzK5YINVXGfiuL1l26
jGOduWm47H8qoonserO3fSWRLMcY19qi+aRsFw1ln4J3T1lfl+JHx195kcFvTRmJ
CpbkfWxciVQT9hwu47ni3GViqb8DmJbJpeEwwMGjS8cVvvzkHcvpeplHf2PMMl0D
6zsKaM/RKJU9raERj6zAJqgYeF4E47oh5ULknZUk29rIUSaC9Dfo/Q==
-----END CERTIFICATE-----
