Certificate:
    Data:
        Version: 3 (0x2)
        Serial Number: 54 (0x36)
        Signature Algorithm: sha1WithRSAEncryption
        Issuer: C=BA, ST=RS, O=Elektrotehnicki fakultet, OU=CA_ETF, CN=CA_tijelo/emailAddress=CA@tijelo.gmail/title=sdlkfj
        Validity
            Not Before: Jan 15 11:12:37 2026 GMT
            Not After : Jan 15 11:12:37 2027 GMT
        Subject: C=BA, ST=RS, O=Elektrotehnicki fakultet, OU=CA_ETF, CN=KDSJFS
        Subject Public Key Info:
            Public Key Algorithm: rsaEncryption
                Public-Key: (4096 bit)
                Modulus:
                    00:cd:9b:4a:83:15:34:e4:fc:c7:1b:b1:ca:6c:8b:
                    29:3b:e1:b0:9f:2d:3e:16:35:65:12:cd:3e:32:41:
                    21:87:19:5e:91:09:4f:9b:f1:cd:ee:b0:11:c5:50:
                    c9:03:cd:c8:c3:eb:df:dc:a9:3c:03:53:80:57:7b:
                    6e:72:0b:57:83:3a:72:06:0d:37:43:77:e9:ed:eb:
                    e4:72:ef:b2:10:22:c1:5a:13:9f:11:f7:25:a2:68:
                    8b:d4:6a:41:37:57:a9:1d:ff:bb:d2:11:1c:09:35:
                    4c:bc:f4:79:57:fa:64:03:10:f9:1a:81:dd:42:1b:
                    47:03:cc:8b:e1:8a:7a:82:a8:56:7d:59:af:76:54:
                    37:42:f3:55:02:58:33:bf:37:5d:54:5f:85:29:e3:
                    c8:d4:e9:70:b7:68:d3:7f:65:21:d3:8e:00:25:0a:
                    75:cb:16:42:f9:fa:99:42:4b:9a:37:6a:59:3b:9e:
                    3d:03:17:59:54:84:33:d4:4c:12:7c:95:f4:5b:6b:
                    ad:de:6b:cb:e6:06:f5:17:a8:bd:e6:05:63:ea:6d:
                    38:e3:8f:bb:22:b4:c5:a7:8f:b7:c6:fc:57:f0:70:
                    56:a5:be:38:c2:75:e0:1c:35:53:0d:40:81:b1:40:
                    58:93:59:28:a2:80:5c:06:b6:36:3e:6f:8d:f3:c6:
                    a9:05:87:7e:65:c0:76:f9:71:36:96:da:a9:aa:19:
                    74:f0:7a:95:ff:40:44:7d:23:b7:86:b8:89:7d:41:
                    57:2d:34:22:23:29:49:e9:9b:9f:9f:cc:74:9f:9b:
                    f3:a5:45:b3:cf:fc:ad:d1:38:e4:90:a6:37:6b:5a:
                    98:9b:b3:f9:e0:cc:98:61:33:9f:0a:3d:9d:54:8b:
                    b2:f8:47:a0:5f:75:b3:1c:1a:a7:58:83:93:6a:04:
                    06:ac:a6:8a:78:f0:35:a3:d8:ff:f7:57:69:54:9b:
                    8e:bd:eb:5e:6f:3c:33:12:44:2d:7b:04:94:cb:ff:
                    87:a2:85:6b:11:dd:e5:89:88:ab:82:42:ba:d5:06:
                    66:7a:fe:2c:c9:98:2a:8e:35:9e:3e:ee:fd:d2:03:
                    a2:89:7d:f3:bb:70:d8:c4:a1:45:fa:fc:63:0d:e1:
                    51:b1:69:3c:8d:f8:3b:a5:02:1c:23:fb:cf:51:6f:
                    24:aa:a3:21:c2:55:fe:34:05:92:1a:e5:12:76:2e:
                    55:46:48:38:8a:5b:73:70:6a:c3:07:4a:a5:19:12:
                    55:29:d7:5c:86:6c:64:61:6b:9e:10:5c:62:a2:2a:
                    58:71:3f:a4:80:c4:59:d4:80:fc:b6:9a:52:71:ac:
                    30:2b:f8:a6:14:91:85:90:f2:57:a8:f1:e0:61:c7:
                    b0:a9:73
                Exponent: 65537 (0x10001)
        X509v3 extensions:
            X509v3 Basic Constraints: 
                CA:TRUE
            X509v3 Key Usage: 
                Data Encipherment
            X509v3 Extended Key Usage: 
                TLS Web Client Authentication, TLS Web Server Authentication
            Netscape Comment: 
                OpenSSL Generated Certificate
            X509v3 Subject Key Identifier: 
                43:04:01:54:E6:4A:6E:A2:23:71:CA:33:B4:51:FA:16:3D:69:D2:2F
            X509v3 Authority Key Identifier: 
                43:04:01:54:E6:4A:6E:A2:23:71:CA:33:B4:51:FA:16:3D:69:D2:2F
            X509v3 CRL Distribution Points: 
                Full Name:
                  URI:http://192.168.21.89/rootcrl.pem
    Signature Algorithm: sha1WithRSAEncryption
    Signature Value:
        5a:99:45:9e:b7:94:d4:dd:e8:c6:9b:9a:ff:90:90:dd:f6:d3:
        c9:07:28:f2:b2:6a:be:b6:ca:70:73:e8:5a:92:bb:23:3a:10:
        97:02:9b:63:b5:da:06:6b:25:c2:b5:2a:1f:10:89:68:e7:50:
        94:6d:ff:37:55:6a:5a:10:a1:1d:71:d4:d1:ac:29:7f:48:2e:
        83:bc:b8:dc:df:cc:7e:07:ad:97:d1:ab:f0:a3:d6:5b:2a:1a:
        60:8f:a2:fa:a3:33:17:f0:c9:d1:bf:7e:9f:f7:33:26:92:f7:
        0b:e7:6b:f1:a4:d8:fa:d5:d4:da:a5:c1:d4:67:ab:34:d6:d0:
        7c:18:a5:f2:4a:33:8a:1e:7a:b8:e2:c5:49:7a:fd:2b:0f:17:
        b0:c8:32:4f:d1:b5:f3:cb:b5:0b:ad:5a:0b:c9:13:46:cd:4d:
        e9:5d:08:0e:a7:ff:88:5b:ff:a9:63:f1:cc:05:f6:4e:ac:53:
        28:58:ad:ab:8d:ac:34:7b:a2:65:43:6c:73:34:2e:49:fd:29:
        86:d0:b6:97:a3:12:4e:f5:64:d4:3d:31:be:a0:a7:80:b7:f4:
        18:79:e4:f7:69:85:3e:30:0e:ae:13:98:a7:20:39:0b:62:57:
        fc:80:46:d5:58:86:f1:7f:50:7f:5e:2e:4a:fa:64:78:59:bc:
        80:7d:46:a7:6c:2e:df:b4:52:e5:68:b4:f5:a0:a3:ae:c0:67:
        af:8a:89:c4:cd:ca:b0:9b:08:46:45:d1:49:bb:09:af:17:78:
        02:2e:e4:3c:74:50:15:83:5e:8c:b8:0d:63:1b:31:92:f6:e3:
        db:7a:fa:44:b1:d0:ab:f8:e5:69:73:24:e2:73:64:bf:d9:05:
        3d:7f:b6:63:cf:6d:80:32:00:0a:86:74:55:d1:be:79:1d:36:
        60:f5:d5:ae:49:a7:3e:7e:43:ee:a5:e2:87:76:d7:d2:61:74:
        bd:f5:d6:7b:10:2f:ed:d4:f3:36:05:71:4b:30:a8:04:92:db:
        b9:e9:91:e6:85:f6:ef:ac:7b:2c:41:fa:7d:e6:50:d1:60:11:
        02:88:45:6e:21:b3:f5:84:d7:00:98:35:47:6c:c7:da:a1:7a:
        61:ce:2a:e6:64:71:58:c8:01:68:9f:f5:c0:03:0a:66:3b:df:
        1e:a8:72:83:9b:a7:ec:fb:22:bc:6e:b5:34:15:4c:94:24:c0:
        72:24:83:7b:45:88:74:76:2f:18:71:b6:b5:cc:86:2f:cc:69:
        59:27:2e:4c:bf:15:bd:90:b7:e9:02:a3:b3:9b:54:57:fb:8b:
        7b:db:ca:3e:30:79:12:ee:dd:c9:47:f9:5a:3f:7d:59:aa:99:
        42:a1:19:ff:73:72:6b:ee
-----BEGIN CERTIFICATE-----
MIIGTTCCBDWgAwIBAgIBNjANBgkqhkiG9w0BAQUFADCBkzELMAkGA1UEBhMCQkEx
CzAJBgNVBAgTAlJTMSEwHwYDVQQKExhFbGVrdHJvdGVobmlja2kgZmFrdWx0ZXQx
DzANBgNVBAsUBkNBX0VURjESMBAGA1UEAxQJQ0FfdGlqZWxvMR4wHAYJKoZIhvcN
AQkBFg9DQUB0aWplbG8uZ21haWwxDzANBgNVBAwTBnNkbGtmajAeFw0yNjAxMTUx
MTEyMzdaFw0yNzAxMTUxMTEyMzdaMF8xCzAJBgNVBAYTAkJBMQswCQYDVQQIEwJS
UzEhMB8GA1UEChMYRWxla3Ryb3RlaG5pY2tpIGZha3VsdGV0MQ8wDQYDVQQLFAZD
QV9FVEYxDzANBgNVBAMTBktEU0pGUzCCAiIwDQYJKoZIhvcNAQEBBQADggIPADCC
AgoCggIBAM2bSoMVNOT8xxuxymyLKTvhsJ8tPhY1ZRLNPjJBIYcZXpEJT5vxze6w
EcVQyQPNyMPr39ypPANTgFd7bnILV4M6cgYNN0N36e3r5HLvshAiwVoTnxH3JaJo
i9RqQTdXqR3/u9IRHAk1TLz0eVf6ZAMQ+RqB3UIbRwPMi+GKeoKoVn1Zr3ZUN0Lz
VQJYM783XVRfhSnjyNTpcLdo039lIdOOACUKdcsWQvn6mUJLmjdqWTuePQMXWVSE
M9RMEnyV9Ftrrd5ry+YG9ReoveYFY+ptOOOPuyK0xaePt8b8V/BwVqW+OMJ14Bw1
Uw1AgbFAWJNZKKKAXAa2Nj5vjfPGqQWHfmXAdvlxNpbaqaoZdPB6lf9ARH0jt4a4
iX1BVy00IiMpSembn5/MdJ+b86VFs8/8rdE45JCmN2tamJuz+eDMmGEznwo9nVSL
svhHoF91sxwap1iDk2oEBqyminjwNaPY//dXaVSbjr3rXm88MxJELXsElMv/h6KF
axHd5YmIq4JCutUGZnr+LMmYKo41nj7u/dIDool987tw2MShRfr8Yw3hUbFpPI34
O6UCHCP7z1FvJKqjIcJV/jQFkhrlEnYuVUZIOIpbc3BqwwdKpRkSVSnXXIZsZGFr
nhBcYqIqWHE/pIDEWdSA/LaaUnGsMCv4phSRhZDyV6jx4GHHsKlzAgMBAAGjgd4w
gdswDAYDVR0TBAUwAwEB/zALBgNVHQ8EBAMCBBAwHQYDVR0lBBYwFAYIKwYBBQUH
AwIGCCsGAQUFBwMBMCwGCWCGSAGG+EIBDQQfFh1PcGVuU1NMIEdlbmVyYXRlZCBD
ZXJ0aWZpY2F0ZTAdBgNVHQ4EFgQUQwQBVOZKbqIjccoztFH6Fj1p0i8wHwYDVR0j
BBgwFoAUQwQBVOZKbqIjccoztFH6Fj1p0i8wMQYDVR0fBCowKDAmoCSgIoYgaHR0
cDovLzE5Mi4xNjguMjEuODkvcm9vdGNybC5wZW0wDQYJKoZIhvcNAQEFBQADggIB
AFqZRZ63lNTd6Mabmv+QkN3208kHKPKyar62ynBz6FqSuyM6EJcCm2O12gZrJcK1
Kh8QiWjnUJRt/zdValoQoR1x1NGsKX9ILoO8uNzfzH4HrZfRq/Cj1lsqGmCPovqj
MxfwydG/fp/3MyaS9wvna/Gk2PrV1NqlwdRnqzTW0HwYpfJKM4oeerjixUl6/SsP
F7DIMk/RtfPLtQutWgvJE0bNTeldCA6n/4hb/6lj8cwF9k6sUyhYrauNrDR7omVD
bHM0Lkn9KYbQtpejEk71ZNQ9Mb6gp4C39Bh55PdphT4wDq4TmKcgOQtiV/yARtVY
hvF/UH9eLkr6ZHhZvIB9RqdsLt+0UuVotPWgo67AZ6+KicTNyrCbCEZF0Um7Ca8X
eAIu5Dx0UBWDXoy4DWMbMZL249t6+kSx0Kv45WlzJOJzZL/ZBT1/tmPPbYAyAAqG
dFXRvnkdNmD11a5Jpz5+Q+6l4od219JhdL311nsQL+3U8zYFcUswqASS27npkeaF
9u+seyxB+n3mUNFgEQKIRW4hs/WE1wCYNUdsx9qhemHOKuZkcVjIAWif9cADCmY7
3x6ocoObp+z7IrxutTQVTJQkwHIkg3tFiHR2LxhxtrXMhi/MaVknLky/Fb2Qt+kC
o7ObVFf7i3vbyj4weRLu3clH+Vo/fVmqmUKhGf9zcmvu
-----END CERTIFICATE-----
