Certificate:
    Data:
        Version: 3 (0x2)
        Serial Number: 161 (0xa1)
        Signature Algorithm: sha1WithRSAEncryption
        Issuer: C=BA, ST=RS, O=Elektrotehnicki fakultet, OU=CA, CN=CA cert/emailAddress=ca@mail.com, SN=CA, GN=ca/pseudonym=CA
        Validity
            Not Before: Jan 14 18:09:57 2026 GMT
            Not After : Jan 12 18:09:57 2036 GMT
        Subject: C=BA, ST=RS, O=Elektrotehnicki fakultet, OU=CA, CN=KSDJF
        Subject Public Key Info:
            Public Key Algorithm: rsaEncryption
                Public-Key: (2048 bit)
                Modulus:
                    00:aa:78:1d:78:10:50:18:94:3f:1f:1c:82:84:a5:
                    2c:bd:ce:17:cf:06:fd:f0:21:f0:bf:6a:92:82:d6:
                    d1:98:d4:13:8c:7d:5d:8f:55:cb:e6:a4:67:8b:d4:
                    98:b8:4b:c6:ac:22:b7:21:22:98:ef:f7:19:c4:4d:
                    51:2c:d5:46:69:79:62:a9:fe:37:1e:ce:f8:48:3f:
                    d2:04:4e:fc:b7:3b:aa:26:12:eb:e4:a5:d9:ad:ad:
                    fc:cb:4a:35:b8:44:ef:52:ff:fd:79:d5:f9:76:72:
                    48:f2:5f:cb:83:04:15:19:b3:5c:a2:7a:fd:e3:88:
                    c8:8e:d4:43:c8:f1:ca:72:87:6d:77:7f:79:5b:80:
                    fe:eb:19:bc:e5:a1:37:fd:4d:72:77:20:00:14:20:
                    c0:58:8c:27:5c:fd:68:63:ea:18:ad:86:4a:c8:4e:
                    45:b3:7b:af:82:d3:d5:9d:24:37:98:b9:e7:44:b1:
                    84:74:04:54:b2:6e:72:3a:c9:f5:a9:da:d0:8b:cb:
                    ec:ef:95:88:06:4e:49:c1:ef:25:f6:e8:65:27:99:
                    12:02:8d:14:5d:c6:22:06:05:96:ce:81:f3:e0:81:
                    2a:53:34:4b:dd:ae:78:ab:c7:1f:f3:b0:9d:2b:69:
                    bb:0e:82:f3:09:82:f8:0a:5a:24:26:fc:bb:1a:cc:
                    a1:6f
                Exponent: 65537 (0x10001)
        X509v3 extensions:
            X509v3 Basic Constraints: 
                CA:FALSE
            X509v3 Key Usage: 
                Digital Signature, Non Repudiation
            Netscape Comment: 
                OpenSSL Generated Certificate
            X509v3 Subject Key Identifier: 
                16:6C:FF:23:09:3D:E4:BB:A0:A9:EE:83:F2:CB:FC:BF:6F:94:8A:55
            X509v3 Authority Key Identifier: 
                16:6C:FF:23:09:3D:E4:BB:A0:A9:EE:83:F2:CB:FC:BF:6F:94:8A:55
            X509v3 CRL Distribution Points: 
                Full Name:
                  URI:http://192.168.21.89/rootcrl.pem
    Signature Algorithm: sha1WithRSAEncryption
    Signature Value:
        7c:78:2e:7d:e0:47:2e:1f:2c:73:ab:74:55:07:ee:5f:14:8f:
        36:eb:57:13:6e:fa:57:22:da:41:4e:6e:40:cc:5a:8f:1d:e8:
        83:cd:32:e2:2b:44:ba:cb:51:76:bb:6b:68:b2:34:0b:68:b6:
        67:a2:4f:f5:15:64:2f:bc:ab:4a:23:e4:ee:3a:33:1c:a3:71:
        bd:ac:29:b8:40:f2:10:2c:41:9a:c1:43:fb:a4:4c:c8:ef:c3:
        1f:5f:ab:10:5b:2a:bc:d0:9a:13:38:79:3e:29:a6:9e:ae:1c:
        ee:63:ac:fb:7a:ba:85:6a:35:5d:24:c5:12:f9:f9:1d:c5:0a:
        ab:01:ba:12:b6:ab:5e:17:89:72:7f:67:78:07:d3:fe:26:67:
        07:f2:96:3c:ee:67:11:23:de:78:13:b9:9d:e7:4b:62:ae:10:
        68:76:b6:6e:82:e7:e9:b0:f2:ea:04:60:31:48:0e:dc:d6:ad:
        f2:df:60:ee:bc:bd:72:86:92:c2:fc:5a:14:ea:cd:c3:81:d5:
        83:3d:88:63:99:9c:ea:c5:94:a9:a5:3e:07:f1:16:a8:b2:8c:
        51:0b:c1:29:a8:9b:00:41:81:11:b7:fc:90:5f:4b:b2:50:7b:
        d7:44:05:bf:1f:81:8c:68:1c:4a:84:25:d0:34:d0:65:c6:53:
        a9:fa:c8:c0
-----BEGIN CERTIFICATE-----
MIIEMzCCAxugAwIBAgICAKEwDQYJKoZIhvcNAQEFBQAwgZ8xCzAJBgNVBAYTAkJB
MQswCQYDVQQIEwJSUzEhMB8GA1UEChMYRWxla3Ryb3RlaG5pY2tpIGZha3VsdGV0
MQswCQYDVQQLEwJDQTEQMA4GA1UEAxMHQ0EgY2VydDEaMBgGCSqGSIb3DQEJARYL
Y2FAbWFpbC5jb20xCzAJBgNVBAQTAkNBMQswCQYDVQQqEwJjYTELMAkGA1UEQRMC
Q0EwHhcNMjYwMTE0MTgwOTU3WhcNMzYwMTEyMTgwOTU3WjBaMQswCQYDVQQGEwJC
QTELMAkGA1UECBMCUlMxITAfBgNVBAoTGEVsZWt0cm90ZWhuaWNraSBmYWt1bHRl
dDELMAkGA1UECxMCQ0ExDjAMBgNVBAMTBUtTREpGMIIBIjANBgkqhkiG9w0BAQEF
AAOCAQ8AMIIBCgKCAQEAqngdeBBQGJQ/HxyChKUsvc4Xzwb98CHwv2qSgtbRmNQT
jH1dj1XL5qRni9SYuEvGrCK3ISKY7/cZxE1RLNVGaXliqf43Hs74SD/SBE78tzuq
JhLr5KXZra38y0o1uETvUv/9edX5dnJI8l/LgwQVGbNconr944jIjtRDyPHKcodt
d395W4D+6xm85aE3/U1ydyAAFCDAWIwnXP1oY+oYrYZKyE5Fs3uvgtPVnSQ3mLnn
RLGEdARUsm5yOsn1qdrQi8vs75WIBk5Jwe8l9uhlJ5kSAo0UXcYiBgWWzoHz4IEq
UzRL3a54q8cf87CdK2m7DoLzCYL4ClokJvy7GsyhbwIDAQABo4G8MIG5MAkGA1Ud
EwQCMAAwCwYDVR0PBAQDAgbAMCwGCWCGSAGG+EIBDQQfFh1PcGVuU1NMIEdlbmVy
YXRlZCBDZXJ0aWZpY2F0ZTAdBgNVHQ4EFgQUFmz/Iwk95Lugqe6D8sv8v2+UilUw
HwYDVR0jBBgwFoAUFmz/Iwk95Lugqe6D8sv8v2+UilUwMQYDVR0fBCowKDAmoCSg
IoYgaHR0cDovLzE5Mi4xNjguMjEuODkvcm9vdGNybC5wZW0wDQYJKoZIhvcNAQEF
BQADggEBAHx4Ln3gRy4fLHOrdFUH7l8UjzbrVxNu+lci2kFObkDMWo8d6IPNMuIr
RLrLUXa7a2iyNAtotmeiT/UVZC+8q0oj5O46Mxyjcb2sKbhA8hAsQZrBQ/ukTMjv
wx9fqxBbKrzQmhM4eT4ppp6uHO5jrPt6uoVqNV0kxRL5+R3FCqsBuhK2q14XiXJ/
Z3gH0/4mZwfyljzuZxEj3ngTuZ3nS2KuEGh2tm6C5+mw8uoEYDFIDtzWrfLfYO68
vXKGksL8WhTqzcOB1YM9iGOZnOrFlKmlPgfxFqiyjFELwSmomwBBgRG3/JBfS7JQ
e9dEBb8fgYxoHEqEJdA00GXGU6n6yMA=
-----END CERTIFICATE-----
