Certificate:
    Data:
        Version: 3 (0x2)
        Serial Number: 177 (0xb1)
        Signature Algorithm: sha1WithRSAEncryption
        Issuer: C=BA, ST=RS, O=Elektrotehnicki fakultet, OU=CA, CN=CA cert/emailAddress=ca@mail.com, SN=CA, GN=ca/pseudonym=CA
        Validity
            Not Before: Jan 15 08:36:33 2026 GMT
            Not After : May 15 08:36:33 2026 GMT
        Subject: C=BA, ST=RS, O=Elektrotehnicki fakultet, OU=CA, CN=DSKJFSF
        Subject Public Key Info:
            Public Key Algorithm: rsaEncryption
                Public-Key: (2048 bit)
                Modulus:
                    00:aa:78:1d:78:10:50:18:94:3f:1f:1c:82:84:a5:
                    2c:bd:ce:17:cf:06:fd:f0:21:f0:bf:6a:92:82:d6:
                    d1:98:d4:13:8c:7d:5d:8f:55:cb:e6:a4:67:8b:d4:
                    98:b8:4b:c6:ac:22:b7:21:22:98:ef:f7:19:c4:4d:
                    51:2c:d5:46:69:79:62:a9:fe:37:1e:ce:f8:48:3f:
                    d2:04:4e:fc:b7:3b:aa:26:12:eb:e4:a5:d9:ad:ad:
                    fc:cb:4a:35:b8:44:ef:52:ff:fd:79:d5:f9:76:72:
                    48:f2:5f:cb:83:04:15:19:b3:5c:a2:7a:fd:e3:88:
                    c8:8e:d4:43:c8:f1:ca:72:87:6d:77:7f:79:5b:80:
                    fe:eb:19:bc:e5:a1:37:fd:4d:72:77:20:00:14:20:
                    c0:58:8c:27:5c:fd:68:63:ea:18:ad:86:4a:c8:4e:
                    45:b3:7b:af:82:d3:d5:9d:24:37:98:b9:e7:44:b1:
                    84:74:04:54:b2:6e:72:3a:c9:f5:a9:da:d0:8b:cb:
                    ec:ef:95:88:06:4e:49:c1:ef:25:f6:e8:65:27:99:
                    12:02:8d:14:5d:c6:22:06:05:96:ce:81:f3:e0:81:
                    2a:53:34:4b:dd:ae:78:ab:c7:1f:f3:b0:9d:2b:69:
                    bb:0e:82:f3:09:82:f8:0a:5a:24:26:fc:bb:1a:cc:
                    a1:6f
                Exponent: 65537 (0x10001)
        X509v3 extensions:
            X509v3 Basic Constraints: 
                CA:TRUE
            X509v3 Key Usage: 
                Data Encipherment
            X509v3 Extended Key Usage: 
                TLS Web Client Authentication, TLS Web Server Authentication
            Netscape Comment: 
                OpenSSL Generated Certificate
            X509v3 Subject Key Identifier: 
                16:6C:FF:23:09:3D:E4:BB:A0:A9:EE:83:F2:CB:FC:BF:6F:94:8A:55
            X509v3 Authority Key Identifier: 
                16:6C:FF:23:09:3D:E4:BB:A0:A9:EE:83:F2:CB:FC:BF:6F:94:8A:55
            X509v3 CRL Distribution Points: 
                Full Name:
                  URI:http://192.168.21.89/rootcrl.pem
    Signature Algorithm: sha1WithRSAEncryption
    Signature Value:
        5f:a3:d9:53:51:46:87:28:d9:58:83:74:28:19:c1:a3:ea:ad:
        06:2b:59:5b:0b:a3:8a:66:9b:e3:f9:63:eb:1e:82:96:88:11:
        f5:1b:ce:84:6a:2a:27:59:5f:bd:e9:68:ab:25:b0:75:6e:d4:
        6c:87:cc:ab:52:0d:ee:f9:42:31:6a:73:7c:b4:95:f7:dd:3e:
        b6:9a:91:7e:6e:1a:4d:35:4e:6d:66:99:fa:49:8f:9a:a0:70:
        38:b1:7d:34:35:68:79:b4:77:d8:bd:2a:98:9d:38:05:35:d3:
        c4:02:7e:38:74:6f:de:6e:fa:0a:ac:c3:c6:6a:02:f8:25:e3:
        13:84:7c:99:72:f0:2a:18:d1:4a:95:f4:db:27:e3:97:68:5c:
        e8:d6:77:0c:d8:d6:68:40:94:fe:1c:c9:c1:e8:97:29:56:24:
        fd:ac:ed:e0:bf:d0:40:8b:90:76:35:44:34:52:b9:e5:66:f5:
        2d:91:cf:26:8b:a1:c5:e2:b2:00:18:1f:bf:c2:26:58:df:88:
        2c:f1:bd:c3:58:fe:fd:1f:54:ab:bc:10:6d:7a:fa:9f:b2:6a:
        ff:ed:58:32:c9:fa:d7:a6:d0:60:6e:19:3f:c3:44:1d:1a:06:
        f8:b6:c9:99:80:58:33:b1:6b:69:02:82:2a:75:87:9d:16:44:
        d9:9a:af:78
-----BEGIN CERTIFICATE-----
MIIEVzCCAz+gAwIBAgICALEwDQYJKoZIhvcNAQEFBQAwgZ8xCzAJBgNVBAYTAkJB
MQswCQYDVQQIEwJSUzEhMB8GA1UEChMYRWxla3Ryb3RlaG5pY2tpIGZha3VsdGV0
MQswCQYDVQQLEwJDQTEQMA4GA1UEAxMHQ0EgY2VydDEaMBgGCSqGSIb3DQEJARYL
Y2FAbWFpbC5jb20xCzAJBgNVBAQTAkNBMQswCQYDVQQqEwJjYTELMAkGA1UEQRMC
Q0EwHhcNMjYwMTE1MDgzNjMzWhcNMjYwNTE1MDgzNjMzWjBcMQswCQYDVQQGEwJC
QTELMAkGA1UECBMCUlMxITAfBgNVBAoTGEVsZWt0cm90ZWhuaWNraSBmYWt1bHRl
dDELMAkGA1UECxMCQ0ExEDAOBgNVBAMTB0RTS0pGU0YwggEiMA0GCSqGSIb3DQEB
AQUAA4IBDwAwggEKAoIBAQCqeB14EFAYlD8fHIKEpSy9zhfPBv3wIfC/apKC1tGY
1BOMfV2PVcvmpGeL1Ji4S8asIrchIpjv9xnETVEs1UZpeWKp/jcezvhIP9IETvy3
O6omEuvkpdmtrfzLSjW4RO9S//151fl2ckjyX8uDBBUZs1yiev3jiMiO1EPI8cpy
h213f3lbgP7rGbzloTf9TXJ3IAAUIMBYjCdc/Whj6hithkrITkWze6+C09WdJDeY
uedEsYR0BFSybnI6yfWp2tCLy+zvlYgGTknB7yX26GUnmRICjRRdxiIGBZbOgfPg
gSpTNEvdrnirxx/zsJ0rabsOgvMJgvgKWiQm/LsazKFvAgMBAAGjgd4wgdswDAYD
VR0TBAUwAwEB/zALBgNVHQ8EBAMCBBAwHQYDVR0lBBYwFAYIKwYBBQUHAwIGCCsG
AQUFBwMBMCwGCWCGSAGG+EIBDQQfFh1PcGVuU1NMIEdlbmVyYXRlZCBDZXJ0aWZp
Y2F0ZTAdBgNVHQ4EFgQUFmz/Iwk95Lugqe6D8sv8v2+UilUwHwYDVR0jBBgwFoAU
Fmz/Iwk95Lugqe6D8sv8v2+UilUwMQYDVR0fBCowKDAmoCSgIoYgaHR0cDovLzE5
Mi4xNjguMjEuODkvcm9vdGNybC5wZW0wDQYJKoZIhvcNAQEFBQADggEBAF+j2VNR
Roco2ViDdCgZwaPqrQYrWVsLo4pmm+P5Y+segpaIEfUbzoRqKidZX73paKslsHVu
1GyHzKtSDe75QjFqc3y0lffdPraakX5uGk01Tm1mmfpJj5qgcDixfTQ1aHm0d9i9
KpidOAU108QCfjh0b95u+gqsw8ZqAvgl4xOEfJly8CoY0UqV9Nsn45doXOjWdwzY
1mhAlP4cycHolylWJP2s7eC/0ECLkHY1RDRSueVm9S2RzyaLocXisgAYH7/CJljf
iCzxvcNY/v0fVKu8EG16+p+yav/tWDLJ+tem0GBuGT/DRB0aBvi2yZmAWDOxa2kC
gip1h50WRNmar3g=
-----END CERTIFICATE-----
