Certificate:
    Data:
        Version: 3 (0x2)
        Serial Number: 4 (0x4)
        Signature Algorithm: sha1WithRSAEncryption
        Issuer: C=BA, ST=RS, L=Banja Luka, O=Elektrotehnicki fakultet, OU=ETF, CN=CA tijelo/emailAddress=ca@mail.com
        Validity
            Not Before: Jan 17 05:47:29 2023 GMT
            Not After : Jan 17 05:47:29 2024 GMT
        Subject: C=BA, ST=RS, O=Elektrotehnicki fakultet, OU=ETF, CN=ETF Studenti/emailAddress=studenti@etf.unibl.org
        Subject Public Key Info:
            Public Key Algorithm: rsaEncryption
                RSA Public-Key: (2048 bit)
                Modulus:
                    00:c0:3d:87:15:8b:19:2d:68:20:25:8d:71:d2:3b:
                    36:97:60:e8:b9:b1:b2:94:d8:0d:32:ef:27:56:b9:
                    e0:8e:37:c2:08:c1:c3:87:13:43:a6:45:01:b2:b0:
                    59:20:e5:a1:45:42:56:67:74:97:2a:c9:1d:8d:65:
                    98:84:52:ce:07:8a:f7:3f:58:9d:3f:11:6c:22:f5:
                    c0:6c:13:ff:5f:e7:60:2b:2c:6e:b0:01:d7:c8:a5:
                    5a:2f:e0:f0:69:09:22:18:d2:30:cd:43:e7:1b:f6:
                    ce:be:8b:1b:df:fb:4b:b0:e1:a2:85:1e:21:3f:9f:
                    83:23:e4:7f:62:59:6c:55:81:07:69:8c:81:1d:63:
                    39:85:46:86:07:67:dd:77:72:5d:35:ca:6e:ba:4c:
                    ba:40:44:c1:14:2e:83:f7:42:24:fa:4f:d9:b7:4c:
                    e0:f8:56:bc:4d:d8:41:f5:03:aa:3d:b4:f0:a5:ed:
                    5d:84:f9:4e:54:f0:7a:47:0c:d5:a9:5f:dc:17:8b:
                    ac:96:9e:de:dd:16:77:d9:ba:cd:6c:ee:1e:3a:cf:
                    b7:96:6d:cb:c5:f7:9b:0a:f5:b0:37:c7:aa:f1:31:
                    55:a4:d4:77:a5:d5:54:0a:09:af:7f:e5:49:b9:fa:
                    0f:62:cc:09:ae:e7:0b:fc:d1:00:0e:ed:50:fb:00:
                    ee:63
                Exponent: 65537 (0x10001)
        X509v3 extensions:
            X509v3 Basic Constraints: 
                CA:FALSE
            X509v3 Key Usage: 
                Digital Signature
            X509v3 Extended Key Usage: 
                TLS Web Client Authentication
            Netscape Comment: 
                OpenSSL Generated Certificate
            X509v3 Subject Key Identifier: 
                59:77:B7:9E:14:69:73:6A:D7:6E:25:AF:09:41:7B:2B:82:CF:53:1C
            X509v3 Authority Key Identifier: 
                keyid:81:0B:F2:CA:44:87:7C:52:A4:DD:EF:A6:A4:7B:BD:4C:7A:B8:9C:45

            X509v3 CRL Distribution Points: 

                Full Name:
                  URI:http://192.168.21.89/rootcrl.pem

    Signature Algorithm: sha1WithRSAEncryption
         91:1f:1c:cf:bc:e7:9f:70:a4:b4:e4:dc:19:be:c6:e0:2b:15:
         f5:2f:b8:12:d8:33:81:c5:70:b6:3a:1c:8f:d8:94:9e:29:bb:
         7a:26:44:3f:f4:be:6f:01:b0:35:5b:a3:ae:3a:fa:eb:17:de:
         3f:5d:aa:b9:df:07:7e:ff:ef:07:93:cd:00:67:e4:9f:7a:b9:
         63:51:5d:58:46:ca:ed:ce:59:1c:c8:ec:6f:31:8d:43:06:1c:
         b5:e1:a2:be:c3:b3:fe:03:1f:9f:9e:c2:e3:7c:a2:10:3e:c8:
         e8:59:46:b1:b6:98:ed:58:39:e6:95:85:8d:c7:31:25:4b:dd:
         53:dd:af:01:6e:da:cd:41:45:48:2d:07:b0:5a:b7:4f:18:09:
         e0:df:73:b3:44:a3:31:2e:e1:ae:0d:66:6b:f4:29:f2:ad:82:
         b9:31:81:5f:cd:3b:67:d9:9f:16:95:5f:6f:15:d2:46:6d:3b:
         40:e1:7d:b3:27:4e:d6:bc:5e:56:07:93:23:27:55:82:86:7a:
         c3:0f:47:f0:12:48:61:2e:3b:ce:4d:f1:61:0e:f4:e0:cc:01:
         dd:79:dd:f8:7a:24:5a:88:3d:85:cd:0a:7d:a6:e5:9b:5c:23:
         54:d7:2f:42:d8:62:c8:90:ee:b5:7e:18:fa:24:53:c2:a9:c4:
         6d:c6:38:a4:f0:42:c0:57:e2:ff:cf:c6:7a:88:35:d3:cc:0b:
         4c:6c:a7:78:2b:df:b0:29:d0:e7:7d:2e:72:f8:db:9b:37:36:
         77:4f:be:f3:f2:80:02:56:d5:b4:8f:1d:54:07:60:c8:e1:4e:
         ba:ae:f7:f8:84:d2:94:6c:00:32:1a:e6:df:81:bb:3f:12:65:
         d4:86:ea:e3:10:a2:70:6d:4d:8a:7e:65:25:e7:4d:f8:b4:fa:
         24:f6:74:af:de:96:dd:ee:89:b2:31:8e:e1:df:dd:97:51:e2:
         c3:0f:80:53:3c:da:bf:19:06:ec:d0:5d:81:2a:62:99:6b:29:
         07:3e:b6:76:62:4f:21:65:50:09:d1:2f:46:b7:d5:61:46:7d:
         6d:dc:58:68:a5:d6:4a:c8:17:92:c2:bc:6f:21:37:10:37:eb:
         7d:f2:b1:0b:62:e0:b5:99:96:65:fe:74:c7:c4:5e:87:03:f0:
         f0:ba:01:5c:fe:8b:c9:d5:2b:61:a1:46:e0:75:f1:75:ca:b7:
         a9:f2:72:cc:59:d5:c3:28:8e:95:6b:77:f8:40:58:cc:49:dd:
         c3:69:50:41:d8:42:b6:ec:e8:f2:e0:e4:45:12:1e:fa:fb:81:
         65:72:4d:79:b5:41:5e:60:5f:8e:c3:5b:0f:a2:7a:c5:59:a0:
         14:e3:2a:e6:83:64:2b:09
-----BEGIN CERTIFICATE-----
MIIFaDCCA1CgAwIBAgIBBDANBgkqhkiG9w0BAQUFADCBkDELMAkGA1UEBhMCQkEx
CzAJBgNVBAgTAlJTMRMwEQYDVQQHEwpCYW5qYSBMdWthMSEwHwYDVQQKExhFbGVr
dHJvdGVobmlja2kgZmFrdWx0ZXQxDDAKBgNVBAsTA0VURjESMBAGA1UEAxMJQ0Eg
dGlqZWxvMRowGAYJKoZIhvcNAQkBFgtjYUBtYWlsLmNvbTAeFw0yMzAxMTcwNTQ3
MjlaFw0yNDAxMTcwNTQ3MjlaMIGJMQswCQYDVQQGEwJCQTELMAkGA1UECBMCUlMx
ITAfBgNVBAoTGEVsZWt0cm90ZWhuaWNraSBmYWt1bHRldDEMMAoGA1UECxMDRVRG
MRUwEwYDVQQDEwxFVEYgU3R1ZGVudGkxJTAjBgkqhkiG9w0BCQEWFnN0dWRlbnRp
QGV0Zi51bmlibC5vcmcwggEiMA0GCSqGSIb3DQEBAQUAA4IBDwAwggEKAoIBAQDA
PYcVixktaCAljXHSOzaXYOi5sbKU2A0y7ydWueCON8IIwcOHE0OmRQGysFkg5aFF
QlZndJcqyR2NZZiEUs4Hivc/WJ0/EWwi9cBsE/9f52ArLG6wAdfIpVov4PBpCSIY
0jDNQ+cb9s6+ixvf+0uw4aKFHiE/n4Mj5H9iWWxVgQdpjIEdYzmFRoYHZ913cl01
ym66TLpARMEULoP3QiT6T9m3TOD4VrxN2EH1A6o9tPCl7V2E+U5U8HpHDNWpX9wX
i6yWnt7dFnfZus1s7h46z7eWbcvF95sK9bA3x6rxMVWk1Hel1VQKCa9/5Um5+g9i
zAmu5wv80QAO7VD7AO5jAgMBAAGjgdEwgc4wCQYDVR0TBAIwADALBgNVHQ8EBAMC
B4AwEwYDVR0lBAwwCgYIKwYBBQUHAwIwLAYJYIZIAYb4QgENBB8WHU9wZW5TU0wg
R2VuZXJhdGVkIENlcnRpZmljYXRlMB0GA1UdDgQWBBRZd7eeFGlzatduJa8JQXsr
gs9THDAfBgNVHSMEGDAWgBSBC/LKRId8UqTd76ake71MericRTAxBgNVHR8EKjAo
MCagJKAihiBodHRwOi8vMTkyLjE2OC4yMS44OS9yb290Y3JsLnBlbTANBgkqhkiG
9w0BAQUFAAOCAgEAkR8cz7znn3CktOTcGb7G4CsV9S+4EtgzgcVwtjocj9iUnim7
eiZEP/S+bwGwNVujrjr66xfeP12qud8Hfv/vB5PNAGfkn3q5Y1FdWEbK7c5ZHMjs
bzGNQwYcteGivsOz/gMfn57C43yiED7I6FlGsbaY7Vg55pWFjccxJUvdU92vAW7a
zUFFSC0HsFq3TxgJ4N9zs0SjMS7hrg1ma/Qp8q2CuTGBX807Z9mfFpVfbxXSRm07
QOF9sydO1rxeVgeTIydVgoZ6ww9H8BJIYS47zk3xYQ704MwB3Xnd+HokWog9hc0K
fablm1wjVNcvQthiyJDutX4Y+iRTwqnEbcY4pPBCwFfi/8/Geog108wLTGyneCvf
sCnQ530ucvjbmzc2d0++8/KAAlbVtI8dVAdgyOFOuq73+ITSlGwAMhrm34G7PxJl
1Ibq4xCicG1Nin5lJedN+LT6JPZ0r96W3e6JsjGO4d/dl1Hiww+AUzzavxkG7NBd
gSpimWspBz62dmJPIWVQCdEvRrfVYUZ9bdxYaKXWSsgXksK8byE3EDfrffKxC2Lg
tZmWZf50x8RehwPw8LoBXP6LydUrYaFG4HXxdcq3qfJyzFnVwyiOlWt3+EBYzEnd
w2lQQdhCtuzo8uDkRRIe+vuBZXJNebVBXmBfjsNbD6J6xVmgFOMq5oNkKwk=
-----END CERTIFICATE-----
