Certificate:
    Data:
        Version: 3 (0x2)
        Serial Number: 1 (0x1)
        Signature Algorithm: sha1WithRSAEncryption
        Issuer: C=BA, ST=RS, L=BL, O=ETF, OU=ETF, CN=Server
        Validity
            Not Before: Jan 16 14:08:16 2026 GMT
            Not After : Jan 16 14:08:16 2028 GMT
        Subject: C=BA, ST=RS, O=Elektrotehnicki fakultet, OU=ETF, CN=RKDSJF/emailAddress=LKSDJFKSD
        Subject Public Key Info:
            Public Key Algorithm: rsaEncryption
                Public-Key: (2048 bit)
                Modulus:
                    00:d2:c1:1d:39:46:ee:0f:42:d6:75:3f:65:4a:5f:
                    54:60:c7:75:51:13:a8:6d:b1:2c:ce:05:d1:50:c5:
                    35:be:4f:27:09:7e:f3:63:01:d6:f7:c8:17:53:2e:
                    e9:d9:f4:e6:f6:55:81:4c:e2:29:c9:40:5e:c6:fb:
                    fd:29:92:e0:98:5c:14:ce:b8:88:2a:a9:8f:6d:31:
                    d5:2b:b0:89:cf:a3:4f:1c:f2:ef:05:64:fb:6f:6e:
                    09:a4:d8:9c:39:94:cb:11:46:49:d3:db:7a:95:04:
                    8b:21:a5:3c:a3:20:c6:9b:80:fa:95:5a:a1:37:2a:
                    02:f7:b1:5e:ac:ee:e0:f4:f5:72:be:c4:da:d8:06:
                    3b:bf:96:28:90:ba:ef:c3:01:47:09:6e:60:1f:e0:
                    f7:92:99:48:66:56:30:51:9d:5b:89:d7:ed:55:0b:
                    86:4c:d8:43:8e:e0:fe:11:a9:68:91:e6:12:aa:80:
                    f4:97:cc:3f:aa:08:98:6b:7b:84:6d:a0:6a:d9:33:
                    fc:d5:c6:41:f3:8a:c1:72:9e:e0:9e:bf:69:00:f6:
                    48:d1:a6:55:ce:e1:ed:79:6b:4f:a6:7a:48:f0:d1:
                    0e:32:f7:b6:d7:95:e8:4c:cf:91:47:81:09:17:76:
                    e6:c3:7f:cd:53:e4:bd:97:9f:ec:ed:d7:cf:11:af:
                    bf:4d
                Exponent: 65537 (0x10001)
        X509v3 extensions:
            X509v3 Basic Constraints: 
                CA:FALSE
            X509v3 Key Usage: 
                Digital Signature
            X509v3 Extended Key Usage: 
                TLS Web Client Authentication
            Netscape Comment: 
                OpenSSL Generated Certificate
            X509v3 Subject Key Identifier: 
                BD:04:BB:B6:92:88:B9:66:49:44:AD:23:4C:F2:C0:00:82:4A:E9:1F
            X509v3 Authority Key Identifier: 
                C9:1F:17:27:20:ED:62:93:48:1A:0D:1B:99:28:79:E2:9A:C7:2F:1B
            X509v3 CRL Distribution Points: 
                Full Name:
                  URI:http://192.168.21.89/rootcrl.pem
    Signature Algorithm: sha1WithRSAEncryption
    Signature Value:
        61:bd:e1:29:49:d2:0e:1b:27:cd:d5:98:3b:1c:82:87:7b:6f:
        48:f1:82:2b:47:ea:88:df:d7:a7:47:5f:4b:d6:c4:01:d4:89:
        23:c7:39:fa:23:5e:19:ec:c4:3e:08:b7:cf:0d:03:04:e0:a9:
        66:21:8e:2c:45:89:73:27:bd:1b:55:7c:02:f9:ac:09:2e:86:
        65:45:4e:58:ed:6b:c4:59:5c:bc:c0:03:bc:62:5f:35:c2:ff:
        52:de:54:c0:93:91:b3:37:1b:ee:28:9e:01:11:77:c3:59:ef:
        08:e9:c7:d2:5a:ca:cc:43:f4:4f:73:e7:23:20:6e:f6:47:77:
        b8:6f:14:9c:cb:3e:5a:24:e7:00:d8:8b:f1:bf:b7:66:d7:39:
        3d:25:07:52:8d:05:46:d1:18:0f:d4:82:27:13:f1:21:6a:97:
        82:7a:aa:eb:8a:a9:d3:10:62:35:fc:0b:10:4c:19:3d:b7:43:
        1d:a7:23:a6:e0:d7:9c:76:2f:51:27:79:51:2d:28:12:94:65:
        4e:05:01:50:67:57:b2:8b:ef:14:26:5a:35:cf:fe:02:b5:24:
        b0:20:ac:f9:48:a4:94:73:e3:78:5d:b5:b9:08:89:8d:c8:ac:
        04:0e:9a:cf:b6:d6:5b:5e:68:bb:03:b1:75:b2:48:01:74:ed:
        e3:34:f5:ca
-----BEGIN CERTIFICATE-----
MIIEFzCCAv+gAwIBAgIBATANBgkqhkiG9w0BAQUFADBUMQswCQYDVQQGEwJCQTEL
MAkGA1UECBMCUlMxCzAJBgNVBAcTAkJMMQwwCgYDVQQKEwNFVEYxDDAKBgNVBAsT
A0VURjEPMA0GA1UEAxMGU2VydmVyMB4XDTI2MDExNjE0MDgxNloXDTI4MDExNjE0
MDgxNlowdjELMAkGA1UEBhMCQkExCzAJBgNVBAgTAlJTMSEwHwYDVQQKExhFbGVr
dHJvdGVobmlja2kgZmFrdWx0ZXQxDDAKBgNVBAsTA0VURjEPMA0GA1UEAxMGUktE
U0pGMRgwFgYJKoZIhvcNAQkBFglMS1NESkZLU0QwggEiMA0GCSqGSIb3DQEBAQUA
A4IBDwAwggEKAoIBAQDSwR05Ru4PQtZ1P2VKX1Rgx3VRE6htsSzOBdFQxTW+TycJ
fvNjAdb3yBdTLunZ9Ob2VYFM4inJQF7G+/0pkuCYXBTOuIgqqY9tMdUrsInPo08c
8u8FZPtvbgmk2Jw5lMsRRknT23qVBIshpTyjIMabgPqVWqE3KgL3sV6s7uD09XK+
xNrYBju/liiQuu/DAUcJbmAf4PeSmUhmVjBRnVuJ1+1VC4ZM2EOO4P4RqWiR5hKq
gPSXzD+qCJhre4RtoGrZM/zVxkHzisFynuCev2kA9kjRplXO4e15a0+mekjw0Q4y
97bXlehMz5FHgQkXdubDf81T5L2Xn+zt188Rr79NAgMBAAGjgdEwgc4wCQYDVR0T
BAIwADALBgNVHQ8EBAMCB4AwEwYDVR0lBAwwCgYIKwYBBQUHAwIwLAYJYIZIAYb4
QgENBB8WHU9wZW5TU0wgR2VuZXJhdGVkIENlcnRpZmljYXRlMB0GA1UdDgQWBBS9
BLu2koi5ZklErSNM8sAAgkrpHzAfBgNVHSMEGDAWgBTJHxcnIO1ik0gaDRuZKHni
mscvGzAxBgNVHR8EKjAoMCagJKAihiBodHRwOi8vMTkyLjE2OC4yMS44OS9yb290
Y3JsLnBlbTANBgkqhkiG9w0BAQUFAAOCAQEAYb3hKUnSDhsnzdWYOxyCh3tvSPGC
K0fqiN/Xp0dfS9bEAdSJI8c5+iNeGezEPgi3zw0DBOCpZiGOLEWJcye9G1V8Avms
CS6GZUVOWO1rxFlcvMADvGJfNcL/Ut5UwJORszcb7iieARF3w1nvCOnH0lrKzEP0
T3PnIyBu9kd3uG8UnMs+WiTnANiL8b+3Ztc5PSUHUo0FRtEYD9SCJxPxIWqXgnqq
64qp0xBiNfwLEEwZPbdDHacjpuDXnHYvUSd5US0oEpRlTgUBUGdXsovvFCZaNc/+
ArUksCCs+UiklHPjeF21uQiJjcisBA6az7bWW15ouwOxdbJIAXTt4zT1yg==
-----END CERTIFICATE-----
