Certificate:
    Data:
        Version: 3 (0x2)
        Serial Number: 54 (0x36)
        Signature Algorithm: sha1WithRSAEncryption
        Issuer: C=BA, ST=RS, O=Elektrotehnicki fakultet, OU=CA_ETF, CN=ca tijelo/emailAddress=ca@etf.com/title=CA
        Validity
            Not Before: Jan 22 10:02:22 2026 GMT
            Not After : Jan 22 10:02:22 2027 GMT
        Subject: C=BA, ST=RS, O=Elektrotehnicki fakultet, OU=CA_ETF, CN=S2
        Subject Public Key Info:
            Public Key Algorithm: rsaEncryption
                Public-Key: (2048 bit)
                Modulus:
                    00:ae:c8:e2:13:62:3c:1d:62:e1:9d:34:90:80:d8:
                    70:b1:7e:2d:ba:c7:97:9e:d9:ad:1b:df:9a:9d:6a:
                    2a:2e:0a:0e:1d:ef:79:ef:d0:22:79:aa:28:1a:e3:
                    3d:31:97:2c:17:de:b5:8a:e4:2d:ed:13:28:3a:61:
                    84:50:da:0f:1d:70:f0:cf:c3:c7:ed:59:de:76:33:
                    7e:4a:f6:7e:50:08:24:2d:bd:37:c2:8a:5d:d5:f8:
                    5c:ea:31:5d:f4:d3:ef:05:9d:17:b8:fb:d5:86:57:
                    cc:a3:d3:3d:9e:08:18:36:43:6c:7b:fa:89:90:3e:
                    1f:49:36:88:f3:0a:d5:10:12:d6:57:c0:8d:09:df:
                    77:31:fe:4b:dc:a5:7b:f8:bc:58:61:b3:19:5d:62:
                    cd:fb:67:ef:ea:40:cf:ce:76:2c:e9:2c:b4:0d:93:
                    ca:71:7f:93:4e:6b:73:c4:1f:46:e4:3a:1b:12:4b:
                    6a:fa:39:cd:db:32:ea:8c:f9:7b:98:43:b4:66:49:
                    eb:b6:6c:44:8a:bf:51:54:6a:3a:3a:c1:c0:47:db:
                    fe:72:21:1c:06:97:2e:5f:3c:6b:e5:b1:22:cf:f0:
                    4e:1b:29:85:df:b7:66:cc:f9:e4:92:af:e2:d0:69:
                    47:be:29:51:39:cc:17:fe:2b:2e:f0:54:32:0e:c3:
                    42:a1
                Exponent: 65537 (0x10001)
        X509v3 extensions:
            X509v3 Basic Constraints: 
                CA:TRUE
            X509v3 Key Usage: 
                Data Encipherment
            X509v3 Extended Key Usage: 
                TLS Web Client Authentication, TLS Web Server Authentication
            Netscape Comment: 
                OpenSSL Generated Certificate
            X509v3 Subject Key Identifier: 
                34:C5:B9:E9:A6:DE:7C:EF:5E:99:9E:37:F0:FD:F6:1E:2C:78:A9:6D
            X509v3 Authority Key Identifier: 
                75:70:EA:A6:DC:14:EE:FF:2D:17:2C:E8:E3:87:34:F2:94:11:30:72
            X509v3 CRL Distribution Points: 
                Full Name:
                  URI:http://192.168.21.89/rootcrl.pem
    Signature Algorithm: sha1WithRSAEncryption
    Signature Value:
        09:5c:82:eb:0c:24:3f:00:8d:b5:46:5b:1b:c1:8d:66:60:dc:
        3e:e1:bd:cf:d5:4b:ee:bf:bb:56:17:ff:be:3b:cd:55:d1:d3:
        20:0b:1c:ec:87:ab:82:c6:e6:6d:09:1b:73:ce:da:7d:a9:84:
        ce:f5:f7:3e:26:36:2f:03:a6:c7:8c:9b:8e:06:8e:93:65:85:
        73:cf:3f:a3:9b:2c:e0:e7:27:3c:b9:5f:a5:0e:02:61:1c:d7:
        b3:29:32:52:1b:00:63:f2:82:78:56:8c:36:59:68:65:aa:40:
        4b:7b:ce:32:18:22:29:04:5c:24:14:96:c7:35:cf:b5:ba:c9:
        7a:91:54:54:22:94:a4:55:9f:ad:22:8c:68:06:a7:d7:cd:c6:
        c7:38:e7:d0:eb:8a:1f:a2:a3:27:09:3a:1d:d8:46:5a:75:13:
        ce:5b:aa:37:62:75:53:a3:e3:c7:b3:db:ef:00:06:0e:f9:1b:
        99:4f:54:62:8d:c3:80:45:23:b9:49:24:ba:7a:56:85:c7:44:
        2c:30:5a:0a:1c:25:bc:8d:f5:84:2f:8d:69:54:df:1a:89:15:
        e5:44:a5:ef:b1:52:94:c0:d9:14:4f:4a:9e:16:c9:4b:37:ed:
        38:b7:e0:7c:04:50:d3:78:46:02:48:eb:1c:e1:0e:a4:d6:10:
        9a:98:ee:e6:9a:71:ed:46:02:e8:ce:1b:cf:d1:0f:9d:de:4e:
        93:a2:13:00:49:d1:bc:a3:e2:ee:95:bb:54:b1:e6:aa:09:f1:
        17:49:08:08:93:1a:b7:3f:e4:8c:cf:c1:da:ee:a9:18:a0:5a:
        a8:a8:4f:b6:b9:18:84:e6:62:72:51:43:a6:ba:58:b6:90:54:
        fd:1a:ad:4a:bb:35:22:ed:22:7b:bd:16:32:e4:b8:8e:9c:8b:
        b6:de:be:bb:df:41:31:d3:e7:8b:6c:8b:45:ca:b5:dd:b6:f9:
        b1:f0:d2:39:18:6b:9a:57:2b:6f:76:4e:19:f1:51:9f:8e:49:
        a4:4d:bd:3b:b0:dd:c7:98:9f:84:04:48:6b:a5:cb:41:d7:2a:
        46:50:99:a1:46:fb:8b:0f:5b:52:0c:e2:2a:da:a4:ff:26:01:
        c7:34:44:3e:de:ca:81:0c:70:c0:b6:c4:8e:79:94:84:0b:14:
        b4:12:cb:a5:92:0d:64:2f:5d:83:95:d1:f6:7c:4f:8d:a0:78:
        7c:d8:95:1c:3d:6d:7e:ae:ef:11:7f:67:ea:59:69:1f:4c:16:
        b2:e3:0c:3e:7b:96:17:44:92:04:76:f2:05:e6:4a:14:60:5f:
        56:1f:27:fd:bf:be:d7:de:2d:49:bc:5d:42:a8:a5:3f:24:10:
        b9:69:07:fc:4e:44:9e:11
-----BEGIN CERTIFICATE-----
MIIFQDCCAyigAwIBAgIBNjANBgkqhkiG9w0BAQUFADCBijELMAkGA1UEBhMCQkEx
CzAJBgNVBAgTAlJTMSEwHwYDVQQKExhFbGVrdHJvdGVobmlja2kgZmFrdWx0ZXQx
DzANBgNVBAsUBkNBX0VURjESMBAGA1UEAxMJY2EgdGlqZWxvMRkwFwYJKoZIhvcN
AQkBFgpjYUBldGYuY29tMQswCQYDVQQMEwJDQTAeFw0yNjAxMjIxMDAyMjJaFw0y
NzAxMjIxMDAyMjJaMFsxCzAJBgNVBAYTAkJBMQswCQYDVQQIEwJSUzEhMB8GA1UE
ChMYRWxla3Ryb3RlaG5pY2tpIGZha3VsdGV0MQ8wDQYDVQQLFAZDQV9FVEYxCzAJ
BgNVBAMTAlMyMIIBIjANBgkqhkiG9w0BAQEFAAOCAQ8AMIIBCgKCAQEArsjiE2I8
HWLhnTSQgNhwsX4tuseXntmtG9+anWoqLgoOHe9579AieaooGuM9MZcsF961iuQt
7RMoOmGEUNoPHXDwz8PH7VnedjN+SvZ+UAgkLb03wopd1fhc6jFd9NPvBZ0XuPvV
hlfMo9M9nggYNkNse/qJkD4fSTaI8wrVEBLWV8CNCd93Mf5L3KV7+LxYYbMZXWLN
+2fv6kDPznYs6Sy0DZPKcX+TTmtzxB9G5DobEktq+jnN2zLqjPl7mEO0ZknrtmxE
ir9RVGo6OsHAR9v+ciEcBpcuXzxr5bEiz/BOGymF37dmzPnkkq/i0GlHvilROcwX
/isu8FQyDsNCoQIDAQABo4HeMIHbMAwGA1UdEwQFMAMBAf8wCwYDVR0PBAQDAgQQ
MB0GA1UdJQQWMBQGCCsGAQUFBwMCBggrBgEFBQcDATAsBglghkgBhvhCAQ0EHxYd
T3BlblNTTCBHZW5lcmF0ZWQgQ2VydGlmaWNhdGUwHQYDVR0OBBYEFDTFuemm3nzv
XpmeN/D99h4seKltMB8GA1UdIwQYMBaAFHVw6qbcFO7/LRcs6OOHNPKUETByMDEG
A1UdHwQqMCgwJqAkoCKGIGh0dHA6Ly8xOTIuMTY4LjIxLjg5L3Jvb3RjcmwucGVt
MA0GCSqGSIb3DQEBBQUAA4ICAQAJXILrDCQ/AI21RlsbwY1mYNw+4b3P1Uvuv7tW
F/++O81V0dMgCxzsh6uCxuZtCRtzztp9qYTO9fc+JjYvA6bHjJuOBo6TZYVzzz+j
myzg5yc8uV+lDgJhHNezKTJSGwBj8oJ4Vow2WWhlqkBLe84yGCIpBFwkFJbHNc+1
usl6kVRUIpSkVZ+tIoxoBqfXzcbHOOfQ64ofoqMnCTod2EZadRPOW6o3YnVTo+PH
s9vvAAYO+RuZT1RijcOARSO5SSS6elaFx0QsMFoKHCW8jfWEL41pVN8aiRXlRKXv
sVKUwNkUT0qeFslLN+04t+B8BFDTeEYCSOsc4Q6k1hCamO7mmnHtRgLozhvP0Q+d
3k6TohMASdG8o+LulbtUseaqCfEXSQgIkxq3P+SMz8Ha7qkYoFqoqE+2uRiE5mJy
UUOmuli2kFT9Gq1KuzUi7SJ7vRYy5LiOnIu23r6730Ex0+eLbItFyrXdtvmx8NI5
GGuaVytvdk4Z8VGfjkmkTb07sN3HmJ+EBEhrpctB1ypGUJmhRvuLD1tSDOIq2qT/
JgHHNEQ+3sqBDHDAtsSOeZSECxS0Esulkg1kL12DldH2fE+NoHh82JUcPW1+ru8R
f2fqWWkfTBay4ww+e5YXRJIEdvIF5koUYF9WHyf9v77X3i1JvF1CqKU/JBC5aQf8
TkSeEQ==
-----END CERTIFICATE-----
