Certificate:
    Data:
        Version: 3 (0x2)
        Serial Number: 55 (0x37)
        Signature Algorithm: sha1WithRSAEncryption
        Issuer: C=BA, ST=RS, O=Elektrotehnicki fakultet, OU=CA_ETF, CN=ca tijelo/emailAddress=ca@etf.com/title=CA
        Validity
            Not Before: Jan 22 09:58:39 2026 GMT
            Not After : Jan 20 09:58:39 2036 GMT
        Subject: C=BA, ST=RS, O=Elektrotehnicki fakultet, OU=CA_ETF, CN=S1
        Subject Public Key Info:
            Public Key Algorithm: rsaEncryption
                Public-Key: (2048 bit)
                Modulus:
                    00:b0:d7:b4:1b:5a:60:f4:bc:00:9e:64:4e:c2:cd:
                    ff:44:8b:60:e3:49:8a:d8:ba:d6:f5:32:3d:0e:45:
                    46:ea:c6:bb:51:5f:8c:2b:34:80:47:2e:67:b8:71:
                    e0:63:fe:fd:45:53:74:61:54:52:07:50:ab:f8:8a:
                    9c:0d:3c:fd:24:16:13:b8:d5:ee:37:f8:63:bc:43:
                    e0:50:59:d4:27:6a:c1:6e:0a:94:17:11:4e:e2:a7:
                    ec:1d:ce:0c:f3:d6:30:26:34:ed:27:d1:ac:e4:32:
                    28:d7:77:13:d3:17:a7:96:0f:0c:62:9f:19:0e:e7:
                    11:32:e0:02:e8:11:ff:f8:d4:9b:c0:30:ea:f6:dd:
                    07:b3:42:80:24:89:13:e7:0f:e0:bf:cc:62:46:5e:
                    69:e5:de:b3:98:e2:6c:6d:58:9e:65:24:e9:32:06:
                    bc:7c:ce:0a:cd:21:9a:c5:85:c1:19:1a:33:59:a7:
                    e1:da:26:9c:47:49:8a:0b:1b:cb:57:50:8a:f8:63:
                    f3:28:f6:6f:1c:30:a6:a6:da:63:f4:c0:72:7a:5e:
                    9e:61:78:76:a5:05:88:75:9a:5f:b5:7a:93:e4:ba:
                    bf:c1:a1:7d:47:9e:f6:fa:92:4f:77:fb:17:16:0b:
                    7d:bd:b0:8c:ac:50:b6:da:5e:c8:6e:78:14:bd:38:
                    de:41
                Exponent: 65537 (0x10001)
        X509v3 extensions:
            X509v3 Basic Constraints: 
                CA:FALSE
            X509v3 Key Usage: 
                Non Repudiation, CRL Sign
            Netscape Comment: 
                OpenSSL Generated Certificate
            X509v3 Subject Key Identifier: 
                0A:D5:C7:81:4F:1F:7A:EB:19:F2:53:65:F9:DD:DC:ED:0E:C2:6A:7B
            X509v3 Authority Key Identifier: 
                75:70:EA:A6:DC:14:EE:FF:2D:17:2C:E8:E3:87:34:F2:94:11:30:72
            X509v3 CRL Distribution Points: 
                Full Name:
                  URI:http://192.168.21.89/rootcrl.pem
    Signature Algorithm: sha1WithRSAEncryption
    Signature Value:
        4f:08:06:63:21:63:15:2a:ca:ef:ae:bf:62:62:d2:9e:44:c6:
        88:f5:2c:23:54:b0:d4:01:4b:28:6a:e4:33:56:3c:47:95:e3:
        d8:5e:d2:cb:87:0f:a9:a4:51:84:66:ca:7f:36:35:42:5d:9e:
        2a:ab:ee:cb:9f:94:b3:67:38:16:f3:e1:5d:b9:c9:7d:f4:86:
        8d:13:ac:8e:e1:a3:14:30:1e:aa:bd:10:6a:51:bf:68:fc:b9:
        13:3d:12:4b:bc:23:64:96:b0:e3:54:59:ef:05:62:2a:98:1e:
        51:39:1f:2c:bd:a3:71:4e:ec:1c:fb:57:13:7c:90:35:61:a0:
        a4:c5:04:c8:ca:a7:34:20:3f:a3:86:89:16:c1:19:aa:7c:91:
        6a:6c:29:52:b8:1a:13:b1:1b:29:89:bf:a9:42:6e:95:bb:61:
        a5:b6:20:b7:a7:22:20:73:7a:cf:97:c8:ac:57:2f:7c:00:ea:
        33:5d:27:78:07:be:61:dd:54:9f:a2:37:09:6f:a2:d7:c5:ac:
        64:59:81:31:c7:0e:5b:e1:2c:6a:60:18:69:19:9d:ad:bf:89:
        6f:a8:94:09:83:a4:d4:5d:c8:81:77:69:f9:9b:98:9b:2b:0d:
        03:9c:8c:9b:dd:d7:26:35:35:4c:31:77:f9:ef:3a:0f:e8:36:
        d6:9d:46:ee:0e:6d:9e:79:3b:12:8a:e1:eb:52:69:4d:c3:9e:
        cf:32:1d:ac:b3:4f:e5:c9:c0:cb:3c:7a:a4:20:4d:32:79:b6:
        5c:85:83:3b:d1:9c:46:d2:f1:9e:98:ab:cf:2b:3e:fd:9f:f4:
        7d:6c:55:b8:3c:ce:ff:5d:13:45:cd:1e:76:6d:36:3c:70:f8:
        26:0a:06:99:92:9e:ef:07:b4:ae:88:f8:4b:61:8d:05:08:59:
        c8:dc:e0:04:4b:b3:b5:46:76:ad:13:d5:44:14:7c:5f:56:f4:
        d0:2d:2a:5a:81:98:6a:ad:24:8e:58:ef:82:9d:2c:89:70:cf:
        76:a7:d7:5b:e9:d0:2c:70:c9:9a:7b:7e:db:18:43:bf:f7:3d:
        39:11:c7:ad:57:81:3b:26:e3:ef:d1:a3:a4:50:ea:86:93:39:
        8e:8f:7a:c6:df:ab:f7:2f:6c:fe:8d:91:7f:13:4a:36:9a:87:
        74:48:65:f1:00:bc:7e:f0:28:49:60:23:94:cd:17:74:23:6f:
        75:67:d2:c4:38:f4:81:61:d2:d8:18:81:f1:4c:2d:d5:ec:57:
        ce:83:dd:7e:0f:5d:f2:fb:e8:34:d0:9e:8f:ea:0b:50:1b:b7:
        88:dd:6f:1f:83:1d:2d:2a:4c:fb:26:19:ec:e5:ea:97:7b:af:
        0b:0e:5e:db:28:2c:ec:b1
-----BEGIN CERTIFICATE-----
MIIFHjCCAwagAwIBAgIBNzANBgkqhkiG9w0BAQUFADCBijELMAkGA1UEBhMCQkEx
CzAJBgNVBAgTAlJTMSEwHwYDVQQKExhFbGVrdHJvdGVobmlja2kgZmFrdWx0ZXQx
DzANBgNVBAsUBkNBX0VURjESMBAGA1UEAxMJY2EgdGlqZWxvMRkwFwYJKoZIhvcN
AQkBFgpjYUBldGYuY29tMQswCQYDVQQMEwJDQTAeFw0yNjAxMjIwOTU4MzlaFw0z
NjAxMjAwOTU4MzlaMFsxCzAJBgNVBAYTAkJBMQswCQYDVQQIEwJSUzEhMB8GA1UE
ChMYRWxla3Ryb3RlaG5pY2tpIGZha3VsdGV0MQ8wDQYDVQQLFAZDQV9FVEYxCzAJ
BgNVBAMTAlMxMIIBIjANBgkqhkiG9w0BAQEFAAOCAQ8AMIIBCgKCAQEAsNe0G1pg
9LwAnmROws3/RItg40mK2LrW9TI9DkVG6sa7UV+MKzSARy5nuHHgY/79RVN0YVRS
B1Cr+IqcDTz9JBYTuNXuN/hjvEPgUFnUJ2rBbgqUFxFO4qfsHc4M89YwJjTtJ9Gs
5DIo13cT0xenlg8MYp8ZDucRMuAC6BH/+NSbwDDq9t0Hs0KAJIkT5w/gv8xiRl5p
5d6zmOJsbVieZSTpMga8fM4KzSGaxYXBGRozWafh2iacR0mKCxvLV1CK+GPzKPZv
HDCmptpj9MByel6eYXh2pQWIdZpftXqT5Lq/waF9R572+pJPd/sXFgt9vbCMrFC2
2l7IbngUvTjeQQIDAQABo4G8MIG5MAkGA1UdEwQCMAAwCwYDVR0PBAQDAgFCMCwG
CWCGSAGG+EIBDQQfFh1PcGVuU1NMIEdlbmVyYXRlZCBDZXJ0aWZpY2F0ZTAdBgNV
HQ4EFgQUCtXHgU8feusZ8lNl+d3c7Q7CanswHwYDVR0jBBgwFoAUdXDqptwU7v8t
Fyzo44c08pQRMHIwMQYDVR0fBCowKDAmoCSgIoYgaHR0cDovLzE5Mi4xNjguMjEu
ODkvcm9vdGNybC5wZW0wDQYJKoZIhvcNAQEFBQADggIBAE8IBmMhYxUqyu+uv2Ji
0p5Exoj1LCNUsNQBSyhq5DNWPEeV49he0suHD6mkUYRmyn82NUJdniqr7suflLNn
OBbz4V25yX30ho0TrI7hoxQwHqq9EGpRv2j8uRM9Eku8I2SWsONUWe8FYiqYHlE5
Hyy9o3FO7Bz7VxN8kDVhoKTFBMjKpzQgP6OGiRbBGap8kWpsKVK4GhOxGymJv6lC
bpW7YaW2ILenIiBzes+XyKxXL3wA6jNdJ3gHvmHdVJ+iNwlvotfFrGRZgTHHDlvh
LGpgGGkZna2/iW+olAmDpNRdyIF3afmbmJsrDQOcjJvd1yY1NUwxd/nvOg/oNtad
Ru4ObZ55OxKK4etSaU3Dns8yHayzT+XJwMs8eqQgTTJ5tlyFgzvRnEbS8Z6Yq88r
Pv2f9H1sVbg8zv9dE0XNHnZtNjxw+CYKBpmSnu8HtK6I+EthjQUIWcjc4ARLs7VG
dq0T1UQUfF9W9NAtKlqBmGqtJI5Y74KdLIlwz3an11vp0CxwyZp7ftsYQ7/3PTkR
x61XgTsm4+/Ro6RQ6oaTOY6Pesbfq/cvbP6NkX8TSjaah3RIZfEAvH7wKElgI5TN
F3Qjb3Vn0sQ49IFh0tgYgfFMLdXsV86D3X4PXfL76DTQno/qC1Abt4jdbx+DHS0q
TPsmGezl6pd7rwsOXtsoLOyx
-----END CERTIFICATE-----
