Certificate:
    Data:
        Version: 3 (0x2)
        Serial Number: 1 (0x1)
        Signature Algorithm: sha1WithRSAEncryption
        Issuer: C=BA, ST=RS, O=Elektrotehnicki fakultet, OU=CA_ETF, CN=ca tijelo/emailAddress=ca@etf.com/title=CA
        Validity
            Not Before: Jan 22 13:32:14 2026 GMT
            Not After : Jan 27 13:32:14 2026 GMT
        Subject: C=BA, ST=RS, O=Elektrotehnicki fakultet, OU=CA_ETF, CN=Klijent
        Subject Public Key Info:
            Public Key Algorithm: rsaEncryption
                Public-Key: (2048 bit)
                Modulus:
                    00:b0:d7:b4:1b:5a:60:f4:bc:00:9e:64:4e:c2:cd:
                    ff:44:8b:60:e3:49:8a:d8:ba:d6:f5:32:3d:0e:45:
                    46:ea:c6:bb:51:5f:8c:2b:34:80:47:2e:67:b8:71:
                    e0:63:fe:fd:45:53:74:61:54:52:07:50:ab:f8:8a:
                    9c:0d:3c:fd:24:16:13:b8:d5:ee:37:f8:63:bc:43:
                    e0:50:59:d4:27:6a:c1:6e:0a:94:17:11:4e:e2:a7:
                    ec:1d:ce:0c:f3:d6:30:26:34:ed:27:d1:ac:e4:32:
                    28:d7:77:13:d3:17:a7:96:0f:0c:62:9f:19:0e:e7:
                    11:32:e0:02:e8:11:ff:f8:d4:9b:c0:30:ea:f6:dd:
                    07:b3:42:80:24:89:13:e7:0f:e0:bf:cc:62:46:5e:
                    69:e5:de:b3:98:e2:6c:6d:58:9e:65:24:e9:32:06:
                    bc:7c:ce:0a:cd:21:9a:c5:85:c1:19:1a:33:59:a7:
                    e1:da:26:9c:47:49:8a:0b:1b:cb:57:50:8a:f8:63:
                    f3:28:f6:6f:1c:30:a6:a6:da:63:f4:c0:72:7a:5e:
                    9e:61:78:76:a5:05:88:75:9a:5f:b5:7a:93:e4:ba:
                    bf:c1:a1:7d:47:9e:f6:fa:92:4f:77:fb:17:16:0b:
                    7d:bd:b0:8c:ac:50:b6:da:5e:c8:6e:78:14:bd:38:
                    de:41
                Exponent: 65537 (0x10001)
        X509v3 extensions:
            X509v3 Basic Constraints: 
                CA:TRUE
            X509v3 Key Usage: 
                Data Encipherment
            X509v3 Extended Key Usage: 
                TLS Web Client Authentication, TLS Web Server Authentication
            Netscape Comment: 
                OpenSSL Generated Certificate
            X509v3 Subject Key Identifier: 
                0A:D5:C7:81:4F:1F:7A:EB:19:F2:53:65:F9:DD:DC:ED:0E:C2:6A:7B
            X509v3 Authority Key Identifier: 
                75:70:EA:A6:DC:14:EE:FF:2D:17:2C:E8:E3:87:34:F2:94:11:30:72
            X509v3 CRL Distribution Points: 
                Full Name:
                  URI:http://192.168.21.89/rootcrl.pem
    Signature Algorithm: sha1WithRSAEncryption
    Signature Value:
        69:4f:9a:79:34:df:ff:9c:c7:17:bf:d4:af:32:3e:39:13:90:
        6a:86:95:22:b7:5e:d8:e0:5d:84:db:09:d2:be:05:1b:72:dc:
        00:79:ff:52:02:4b:56:3e:cc:56:d1:b1:74:3a:13:18:d6:f0:
        ed:4d:15:d0:00:17:d1:9e:12:e1:6a:dd:19:76:8e:c1:31:27:
        1f:f8:b4:0d:db:59:e8:19:75:77:19:2e:94:31:60:29:ba:8b:
        f7:54:76:3a:38:d9:89:9a:aa:a9:33:04:d7:88:be:e1:b0:18:
        cf:d0:3f:88:43:a3:99:57:e1:c8:f1:b5:14:0d:a4:1f:a3:30:
        48:56:5f:bd:b1:b6:58:21:ce:37:d1:3e:e6:04:b6:81:c4:69:
        4a:56:7d:26:ff:f8:ba:de:b6:7f:1a:eb:ba:a4:26:af:3b:71:
        a3:dd:c8:36:64:7f:7d:f8:bb:19:72:0c:c1:2e:45:7a:92:55:
        7f:03:d9:d5:71:1d:d5:49:52:2c:e3:6b:89:0a:40:8a:ea:4b:
        7d:06:b7:1b:26:a5:c9:88:84:40:aa:24:fe:52:74:be:16:62:
        f5:f3:5f:f7:2b:27:c3:34:1d:85:6f:6c:df:5c:d7:94:36:2e:
        ff:4e:e9:46:5c:e4:d8:69:3d:c9:07:ee:36:5c:e1:da:eb:de:
        1c:c0:1d:d5:1c:9b:9b:d3:2e:2c:c5:75:09:80:58:72:6a:54:
        1b:b8:49:e6:57:3f:8b:41:4d:85:20:15:34:b8:bc:42:32:46:
        13:f7:1d:35:3b:f7:e7:09:b2:10:9d:0b:84:e2:14:c0:70:53:
        d3:35:b6:af:9a:59:d7:0f:2a:bb:46:f3:76:d7:ce:08:e6:ee:
        0d:a9:92:4d:3f:0a:ac:c9:0d:99:66:5a:d1:67:57:77:d3:93:
        71:00:0f:39:ec:64:bf:ea:39:32:5c:16:29:2c:18:b6:a1:a1:
        44:aa:e6:c9:16:a8:7c:7f:03:b1:97:c2:ba:5d:7e:75:2d:9d:
        d3:5c:92:7a:bc:8c:c4:37:4f:79:ed:a7:40:1d:f0:95:eb:80:
        92:02:98:58:a2:2f:e4:1f:64:0e:31:b6:61:a7:6b:2e:fd:1b:
        7f:fa:02:57:cd:12:c9:2d:60:b1:a6:89:c1:33:61:d9:e7:68:
        43:f3:c2:af:58:ac:b3:b8:05:f0:6f:86:d2:c9:43:3d:1a:45:
        a1:d8:e6:f8:1c:a7:c7:ad:95:1d:4f:17:e9:a8:78:02:a7:6f:
        a1:ab:ad:a6:b2:45:3e:a8:be:28:6a:67:27:9c:8d:25:e3:2a:
        74:14:ea:cd:14:d0:e5:61:60:fe:41:0d:13:e1:ff:d7:4c:27:
        f3:75:5e:cc:dc:e6:5c:64
-----BEGIN CERTIFICATE-----
MIIFRTCCAy2gAwIBAgIBATANBgkqhkiG9w0BAQUFADCBijELMAkGA1UEBhMCQkEx
CzAJBgNVBAgTAlJTMSEwHwYDVQQKExhFbGVrdHJvdGVobmlja2kgZmFrdWx0ZXQx
DzANBgNVBAsUBkNBX0VURjESMBAGA1UEAxMJY2EgdGlqZWxvMRkwFwYJKoZIhvcN
AQkBFgpjYUBldGYuY29tMQswCQYDVQQMEwJDQTAeFw0yNjAxMjIxMzMyMTRaFw0y
NjAxMjcxMzMyMTRaMGAxCzAJBgNVBAYTAkJBMQswCQYDVQQIEwJSUzEhMB8GA1UE
ChMYRWxla3Ryb3RlaG5pY2tpIGZha3VsdGV0MQ8wDQYDVQQLFAZDQV9FVEYxEDAO
BgNVBAMTB0tsaWplbnQwggEiMA0GCSqGSIb3DQEBAQUAA4IBDwAwggEKAoIBAQCw
17QbWmD0vACeZE7Czf9Ei2DjSYrYutb1Mj0ORUbqxrtRX4wrNIBHLme4ceBj/v1F
U3RhVFIHUKv4ipwNPP0kFhO41e43+GO8Q+BQWdQnasFuCpQXEU7ip+wdzgzz1jAm
NO0n0azkMijXdxPTF6eWDwxinxkO5xEy4ALoEf/41JvAMOr23QezQoAkiRPnD+C/
zGJGXmnl3rOY4mxtWJ5lJOkyBrx8zgrNIZrFhcEZGjNZp+HaJpxHSYoLG8tXUIr4
Y/Mo9m8cMKam2mP0wHJ6Xp5heHalBYh1ml+1epPkur/BoX1Hnvb6kk93+xcWC329
sIysULbaXshueBS9ON5BAgMBAAGjgd4wgdswDAYDVR0TBAUwAwEB/zALBgNVHQ8E
BAMCBBAwHQYDVR0lBBYwFAYIKwYBBQUHAwIGCCsGAQUFBwMBMCwGCWCGSAGG+EIB
DQQfFh1PcGVuU1NMIEdlbmVyYXRlZCBDZXJ0aWZpY2F0ZTAdBgNVHQ4EFgQUCtXH
gU8feusZ8lNl+d3c7Q7CanswHwYDVR0jBBgwFoAUdXDqptwU7v8tFyzo44c08pQR
MHIwMQYDVR0fBCowKDAmoCSgIoYgaHR0cDovLzE5Mi4xNjguMjEuODkvcm9vdGNy
bC5wZW0wDQYJKoZIhvcNAQEFBQADggIBAGlPmnk03/+cxxe/1K8yPjkTkGqGlSK3
XtjgXYTbCdK+BRty3AB5/1ICS1Y+zFbRsXQ6ExjW8O1NFdAAF9GeEuFq3Rl2jsEx
Jx/4tA3bWegZdXcZLpQxYCm6i/dUdjo42YmaqqkzBNeIvuGwGM/QP4hDo5lX4cjx
tRQNpB+jMEhWX72xtlghzjfRPuYEtoHEaUpWfSb/+Lretn8a67qkJq87caPdyDZk
f334uxlyDMEuRXqSVX8D2dVxHdVJUizja4kKQIrqS30GtxsmpcmIhECqJP5SdL4W
YvXzX/crJ8M0HYVvbN9c15Q2Lv9O6UZc5NhpPckH7jZc4drr3hzAHdUcm5vTLizF
dQmAWHJqVBu4SeZXP4tBTYUgFTS4vEIyRhP3HTU79+cJshCdC4TiFMBwU9M1tq+a
WdcPKrtG83bXzgjm7g2pkk0/CqzJDZlmWtFnV3fTk3EADznsZL/qOTJcFiksGLah
oUSq5skWqHx/A7GXwrpdfnUtndNcknq8jMQ3T3ntp0Ad8JXrgJICmFiiL+QfZA4x
tmGnay79G3/6AlfNEsktYLGmicEzYdnnaEPzwq9YrLO4BfBvhtLJQz0aRaHY5vgc
p8etlR1PF+moeAKnb6GrraayRT6ovihqZyecjSXjKnQU6s0U0OVhYP5BDRPh/9dM
J/N1Xszc5lxk
-----END CERTIFICATE-----
