Certificate:
    Data:
        Version: 3 (0x2)
        Serial Number: 1 (0x1)
        Signature Algorithm: sha1WithRSAEncryption
        Issuer: C=BA, ST=RS, L=Banja Luka, O=Univerzitet u Banjoj Luci, OU=Elektrotehnicki fakultet, CN=CA/emailAddress=ca@etf.unibl.org/pseudonym=ETF_CA/pseudonym=Elektro/pseudonym=CA tijelo/title=Student
        Validity
            Not Before: Jan  9 20:07:44 2026 GMT
            Not After : Sep  6 20:07:44 2026 GMT
        Subject: C=BA, ST=RS, O=Univerzitet u Banjoj Luci, OU=Elektrotehnicki fakultet/pseudonym=ETF_CA/title=title, CN=likina/emailAddress=asdgsd
        Subject Public Key Info:
            Public Key Algorithm: rsaEncryption
                Public-Key: (2048 bit)
                Modulus:
                    00:b0:aa:68:19:46:c4:13:34:9b:6a:a9:54:9c:b8:
                    02:ec:2c:f9:e6:db:2c:f0:2d:d0:fb:60:6b:c9:d0:
                    1f:93:89:e0:44:ad:dc:95:55:bf:db:4e:18:e8:98:
                    ff:f1:6e:1b:42:fe:d4:fa:e1:95:2e:69:72:6f:5a:
                    3d:42:6f:21:b4:b6:26:12:1e:cf:83:44:04:8a:70:
                    c6:42:4a:1c:c6:b2:21:c2:1a:41:f6:9b:9c:97:86:
                    5a:32:4b:4b:56:0e:7c:58:f6:56:c3:84:1a:ad:0f:
                    64:c7:b8:ee:c9:93:a3:7f:ce:83:39:5c:02:79:34:
                    8a:8c:cb:65:98:b1:da:f6:36:6c:1a:aa:8c:98:59:
                    66:5f:e0:30:56:43:f7:a6:9c:fc:39:53:21:29:ca:
                    83:a3:37:76:59:01:03:e3:68:17:34:ed:2d:82:2f:
                    71:57:7a:f6:e5:b9:80:68:08:34:2f:9e:7c:fb:d9:
                    d5:d9:f9:41:be:71:51:82:db:21:1b:50:09:77:2b:
                    91:1d:89:f6:3d:cc:92:2a:5d:96:e3:f7:57:58:8d:
                    30:2b:8d:b9:d0:82:01:ad:9e:33:e8:2c:9b:83:79:
                    59:5a:0a:61:8f:6a:35:62:3f:f8:98:2f:4f:1b:68:
                    72:1e:ed:68:ca:bf:b1:7c:56:0c:4a:f4:23:6a:0a:
                    98:bb
                Exponent: 65537 (0x10001)
        X509v3 extensions:
            X509v3 Basic Constraints: 
                CA:FALSE
            X509v3 Key Usage: 
                Digital Signature
            X509v3 Extended Key Usage: 
                TLS Web Client Authentication
            Netscape Comment: 
                OpenSSL Generated Certificate
            X509v3 Subject Key Identifier: 
                56:D8:1F:97:35:75:3B:48:99:3E:D2:0E:13:19:F1:C2:BA:22:24:63
            X509v3 Authority Key Identifier: 
                56:D8:1F:97:35:75:3B:48:99:3E:D2:0E:13:19:F1:C2:BA:22:24:63
            X509v3 CRL Distribution Points: 
                Full Name:
                  URI:http://192.168.21.89/rootcrl.pem
    Signature Algorithm: sha1WithRSAEncryption
    Signature Value:
        0f:48:f4:ba:6c:47:31:ae:ec:99:66:b4:89:c4:27:0a:bc:9e:
        72:d3:b0:8e:fd:aa:1c:d4:60:f8:2f:96:00:49:8f:b5:31:3b:
        6c:96:14:26:60:47:c9:db:2b:9b:07:73:60:3c:20:71:64:0b:
        07:52:2e:91:65:ca:e0:44:84:b3:bb:b2:9d:1b:16:dd:38:15:
        a3:34:1c:2e:a3:d9:c1:12:90:36:d1:83:e7:50:28:34:3b:53:
        1d:8a:ce:db:94:6f:f3:18:1a:4c:24:7a:b5:15:ff:9c:21:e4:
        83:87:c2:4f:e4:82:ee:66:55:88:f7:44:07:19:45:3b:71:78:
        e1:33:7a:3a:d4:42:2b:85:6b:0c:63:53:81:cc:51:05:f2:68:
        04:8c:85:14:49:6d:50:4a:a4:a0:9e:d2:c8:e9:3b:11:2f:96:
        73:37:0e:ef:64:84:32:19:02:22:0c:17:97:37:00:85:e8:d8:
        be:e3:10:2c:cc:24:44:33:fa:29:5b:80:01:8d:bb:0c:95:0b:
        49:07:91:e4:6a:ea:1c:84:94:f3:57:0f:9d:e7:42:1b:66:ca:
        59:8d:30:cc:0b:dd:9d:a0:8e:a5:03:60:fd:9b:c9:56:2f:40:
        47:88:5f:ee:53:5d:f7:3c:dd:4a:fb:66:27:4e:02:3f:95:32:
        be:94:03:ff
-----BEGIN CERTIFICATE-----
MIIE5jCCA86gAwIBAgIBATANBgkqhkiG9w0BAQUFADCB7TELMAkGA1UEBhMCQkEx
CzAJBgNVBAgTAlJTMRMwEQYDVQQHEwpCYW5qYSBMdWthMSIwIAYDVQQKExlVbml2
ZXJ6aXRldCB1IEJhbmpvaiBMdWNpMSEwHwYDVQQLExhFbGVrdHJvdGVobmlja2kg
ZmFrdWx0ZXQxCzAJBgNVBAMTAkNBMR8wHQYJKoZIhvcNAQkBFhBjYUBldGYudW5p
Ymwub3JnMQ8wDQYDVQRBFAZFVEZfQ0ExEDAOBgNVBEETB0VsZWt0cm8xEjAQBgNV
BEETCUNBIHRpamVsbzEQMA4GA1UEDBMHU3R1ZGVudDAeFw0yNjAxMDkyMDA3NDRa
Fw0yNjA5MDYyMDA3NDRaMIGqMQswCQYDVQQGEwJCQTELMAkGA1UECBMCUlMxIjAg
BgNVBAoTGVVuaXZlcnppdGV0IHUgQmFuam9qIEx1Y2kxITAfBgNVBAsTGEVsZWt0
cm90ZWhuaWNraSBmYWt1bHRldDEPMA0GA1UEQRQGRVRGX0NBMQ4wDAYDVQQMEwV0
aXRsZTEPMA0GA1UEAxMGbGlraW5hMRUwEwYJKoZIhvcNAQkBFgZhc2Rnc2QwggEi
MA0GCSqGSIb3DQEBAQUAA4IBDwAwggEKAoIBAQCwqmgZRsQTNJtqqVScuALsLPnm
2yzwLdD7YGvJ0B+TieBErdyVVb/bThjomP/xbhtC/tT64ZUuaXJvWj1CbyG0tiYS
Hs+DRASKcMZCShzGsiHCGkH2m5yXhloyS0tWDnxY9lbDhBqtD2THuO7Jk6N/zoM5
XAJ5NIqMy2WYsdr2NmwaqoyYWWZf4DBWQ/emnPw5UyEpyoOjN3ZZAQPjaBc07S2C
L3FXevbluYBoCDQvnnz72dXZ+UG+cVGC2yEbUAl3K5EdifY9zJIqXZbj91dYjTAr
jbnQggGtnjPoLJuDeVlaCmGPajViP/iYL08baHIe7WjKv7F8VgxK9CNqCpi7AgMB
AAGjgdEwgc4wCQYDVR0TBAIwADALBgNVHQ8EBAMCB4AwEwYDVR0lBAwwCgYIKwYB
BQUHAwIwLAYJYIZIAYb4QgENBB8WHU9wZW5TU0wgR2VuZXJhdGVkIENlcnRpZmlj
YXRlMB0GA1UdDgQWBBRW2B+XNXU7SJk+0g4TGfHCuiIkYzAfBgNVHSMEGDAWgBRW
2B+XNXU7SJk+0g4TGfHCuiIkYzAxBgNVHR8EKjAoMCagJKAihiBodHRwOi8vMTky
LjE2OC4yMS44OS9yb290Y3JsLnBlbTANBgkqhkiG9w0BAQUFAAOCAQEAD0j0umxH
Ma7smWa0icQnCryectOwjv2qHNRg+C+WAEmPtTE7bJYUJmBHydsrmwdzYDwgcWQL
B1IukWXK4ESEs7uynRsW3TgVozQcLqPZwRKQNtGD51AoNDtTHYrO25Rv8xgaTCR6
tRX/nCHkg4fCT+SC7mZViPdEBxlFO3F44TN6OtRCK4VrDGNTgcxRBfJoBIyFFElt
UEqkoJ7SyOk7ES+WczcO72SEMhkCIgwXlzcAhejYvuMQLMwkRDP6KVuAAY27DJUL
SQeR5GrqHISU81cPnedCG2bKWY0wzAvdnaCOpQNg/ZvJVi9AR4hf7lNd9zzdSvtm
J04CP5UyvpQD/w==
-----END CERTIFICATE-----
