Certificate:
    Data:
        Version: 3 (0x2)
        Serial Number: 1 (0x1)
        Signature Algorithm: sha1WithRSAEncryption
        Issuer: C=BA, ST=Republika Srpska, L=Banja Luka, O=Elektrotehnicki fakultet, OU=Katedra za racunarstvo i informatiku, CN=ca/emailAddress=ca@etf.com
        Validity
            Not Before: Jan 24 12:26:33 2026 GMT
            Not After : Jan 22 12:26:33 2036 GMT
        Subject: C=BA, ST=Republika Srpska, L=Banja Luka, O=Elektrotehnicki fakultet, OU=Katedra za racunarstvo i informatiku, CN=c1/emailAddress=c1@etf.com
        Subject Public Key Info:
            Public Key Algorithm: rsaEncryption
                Public-Key: (2048 bit)
                Modulus:
                    00:ad:87:c2:45:77:1c:ea:0f:22:56:42:8e:f7:36:
                    87:ad:f4:07:fc:84:84:1c:1a:e4:a9:d2:2b:88:4c:
                    eb:c7:14:7b:2a:13:a8:da:52:23:f6:eb:c4:0c:d6:
                    f1:3f:e4:37:29:fd:5f:00:c9:35:9a:6d:e9:7b:0e:
                    c7:d5:a1:ec:d9:da:3a:64:87:d5:9c:6a:40:58:13:
                    5b:ea:60:e0:ae:35:1a:f6:2f:20:11:d1:27:17:8e:
                    11:a3:29:23:fd:05:9e:e8:77:e5:a1:13:01:5e:a0:
                    de:e4:4c:77:54:be:31:32:0d:42:ed:a3:de:da:bb:
                    a8:e3:61:ad:05:8e:d2:63:7e:da:22:d8:f2:78:d7:
                    d4:15:ad:20:c3:15:91:a5:26:73:8a:fa:47:6a:49:
                    67:f5:9c:76:97:49:15:9f:f4:35:ed:94:28:6e:3d:
                    5a:28:6b:c2:83:86:10:55:6a:16:10:1f:da:be:c2:
                    8d:f9:ec:a5:9d:0c:d9:65:6e:cb:13:1b:b5:65:2a:
                    bd:9b:a6:81:51:5a:0c:16:2e:eb:c3:5f:dc:7d:0e:
                    e5:09:a7:9d:c5:70:0f:8f:89:89:24:fe:2c:e6:bd:
                    ff:9e:b5:88:d9:77:f9:93:81:d0:9f:52:44:f7:68:
                    ec:aa:16:60:3e:d9:43:dd:e6:58:ff:a1:9e:55:28:
                    88:f3
                Exponent: 65537 (0x10001)
        X509v3 extensions:
            X509v3 Basic Constraints: 
                CA:FALSE
            X509v3 Key Usage: 
                Digital Signature, Non Repudiation, Key Encipherment
            X509v3 Extended Key Usage: 
                TLS Web Server Authentication, TLS Web Client Authentication
            Netscape Comment: 
                OpenSSL Generated Certificate
            X509v3 Subject Key Identifier: 
                29:FB:21:EF:B9:20:6F:E3:55:0D:7B:F8:D4:BF:E2:80:E2:1B:76:82
            X509v3 Authority Key Identifier: 
                29:E0:A6:75:31:60:F2:16:88:B8:2A:30:E1:91:7F:FC:1F:57:00:92
    Signature Algorithm: sha1WithRSAEncryption
    Signature Value:
        5f:b8:a8:16:10:0d:42:98:79:3c:96:83:34:86:46:22:5a:98:
        b2:b9:20:83:e6:c1:9e:54:70:c9:81:bc:80:96:cf:99:2e:87:
        df:f9:0b:65:95:ff:27:2a:fa:f0:e9:45:32:54:29:89:fd:27:
        eb:f4:3c:8b:6d:06:08:21:45:ee:3d:b8:48:c4:eb:60:0c:a1:
        dc:72:47:7a:31:ce:44:96:00:e7:3f:22:ec:f2:a4:90:1c:9e:
        99:68:8c:a9:9e:73:a0:01:c7:e8:0d:8f:2f:62:72:0d:b4:b8:
        fd:5d:ef:34:ea:d6:ab:c9:58:9c:fa:74:0f:39:08:f2:71:8e:
        ad:ea:f1:3b:4b:08:2e:d8:92:a0:2c:a0:d3:32:0a:7b:8b:19:
        de:fd:ab:7e:17:87:d7:01:02:04:96:14:23:cb:21:6c:11:a1:
        e2:39:4e:a9:5a:4a:95:5c:bc:95:ff:8b:3e:31:b5:e6:52:82:
        6c:c4:02:de:60:07:b4:12:b8:59:71:29:3b:12:eb:2e:37:70:
        21:34:04:de:c3:18:1a:39:16:39:bf:af:0e:a1:1a:09:59:23:
        35:34:24:e8:62:f9:1d:46:69:15:48:42:b9:93:70:ad:fa:dd:
        8b:dd:eb:04:2a:d3:5f:8b:9e:e7:c4:5f:d4:df:07:b4:56:9f:
        87:7f:43:ca
-----BEGIN CERTIFICATE-----
MIIElDCCA3ygAwIBAgIBATANBgkqhkiG9w0BAQUFADCBtzELMAkGA1UEBhMCQkEx
GTAXBgNVBAgTEFJlcHVibGlrYSBTcnBza2ExEzARBgNVBAcTCkJhbmphIEx1a2Ex
ITAfBgNVBAoTGEVsZWt0cm90ZWhuaWNraSBmYWt1bHRldDEtMCsGA1UECxMkS2F0
ZWRyYSB6YSByYWN1bmFyc3R2byBpIGluZm9ybWF0aWt1MQswCQYDVQQDEwJjYTEZ
MBcGCSqGSIb3DQEJARYKY2FAZXRmLmNvbTAeFw0yNjAxMjQxMjI2MzNaFw0zNjAx
MjIxMjI2MzNaMIG3MQswCQYDVQQGEwJCQTEZMBcGA1UECBMQUmVwdWJsaWthIFNy
cHNrYTETMBEGA1UEBxMKQmFuamEgTHVrYTEhMB8GA1UEChMYRWxla3Ryb3RlaG5p
Y2tpIGZha3VsdGV0MS0wKwYDVQQLEyRLYXRlZHJhIHphIHJhY3VuYXJzdHZvIGkg
aW5mb3JtYXRpa3UxCzAJBgNVBAMTAmMxMRkwFwYJKoZIhvcNAQkBFgpjMUBldGYu
Y29tMIIBIjANBgkqhkiG9w0BAQEFAAOCAQ8AMIIBCgKCAQEArYfCRXcc6g8iVkKO
9zaHrfQH/ISEHBrkqdIriEzrxxR7KhOo2lIj9uvEDNbxP+Q3Kf1fAMk1mm3pew7H
1aHs2do6ZIfVnGpAWBNb6mDgrjUa9i8gEdEnF44Roykj/QWe6HfloRMBXqDe5Ex3
VL4xMg1C7aPe2ruo42GtBY7SY37aItjyeNfUFa0gwxWRpSZzivpHakln9Zx2l0kV
n/Q17ZQobj1aKGvCg4YQVWoWEB/avsKN+eylnQzZZW7LExu1ZSq9m6aBUVoMFi7r
w1/cfQ7lCaedxXAPj4mJJP4s5r3/nrWI2Xf5k4HQn1JE92jsqhZgPtlD3eZY/6Ge
VSiI8wIDAQABo4GoMIGlMAkGA1UdEwQCMAAwCwYDVR0PBAQDAgXgMB0GA1UdJQQW
MBQGCCsGAQUFBwMBBggrBgEFBQcDAjAsBglghkgBhvhCAQ0EHxYdT3BlblNTTCBH
ZW5lcmF0ZWQgQ2VydGlmaWNhdGUwHQYDVR0OBBYEFCn7Ie+5IG/jVQ17+NS/4oDi
G3aCMB8GA1UdIwQYMBaAFCngpnUxYPIWiLgqMOGRf/wfVwCSMA0GCSqGSIb3DQEB
BQUAA4IBAQBfuKgWEA1CmHk8loM0hkYiWpiyuSCD5sGeVHDJgbyAls+ZLoff+Qtl
lf8nKvrw6UUyVCmJ/Sfr9DyLbQYIIUXuPbhIxOtgDKHcckd6Mc5ElgDnPyLs8qSQ
HJ6ZaIypnnOgAcfoDY8vYnINtLj9Xe806taryVic+nQPOQjycY6t6vE7Swgu2JKg
LKDTMgp7ixne/at+F4fXAQIElhQjyyFsEaHiOU6pWkqVXLyV/4s+MbXmUoJsxALe
YAe0ErhZcSk7EusuN3AhNATewxgaORY5v68OoRoJWSM1NCToYvkdRmkVSEK5k3Ct
+t2L3esEKtNfi57nxF/U3we0Vp+Hf0PK
-----END CERTIFICATE-----
