Certificate:
    Data:
        Version: 3 (0x2)
        Serial Number: 2 (0x2)
        Signature Algorithm: sha1WithRSAEncryption
        Issuer: C=BA, ST=Republika Srpska, L=Banja Luka, O=Elektrotehnicki fakultet, OU=Katedra za racunarstvo i informatiku, CN=ca/emailAddress=ca@etf.com
        Validity
            Not Before: Jan 24 12:26:51 2026 GMT
            Not After : Jan 22 12:26:51 2036 GMT
        Subject: C=BA, ST=Republika Srpska, L=Banja Luka, O=Elektrotehnicki fakultet, OU=Katedra za racunarstvo i informatiku, CN=c2/emailAddress=c2@etf.com
        Subject Public Key Info:
            Public Key Algorithm: rsaEncryption
                Public-Key: (2048 bit)
                Modulus:
                    00:e2:ea:16:bd:bd:d1:9f:a8:06:21:db:3d:86:6a:
                    4a:15:5c:63:54:3b:c0:93:ef:fc:57:0c:a3:ac:6d:
                    fb:1e:d2:77:b6:76:7f:30:e8:3f:58:25:9e:43:e9:
                    b2:26:9e:7d:d0:c4:ab:97:c7:2d:3b:01:39:a6:d9:
                    39:13:1f:85:e5:4a:e9:11:6d:78:eb:bc:87:85:2d:
                    22:92:ad:fb:6e:b5:d8:78:b3:41:cd:9e:e2:36:0a:
                    fa:13:77:04:67:64:4b:01:68:80:2d:e5:1f:a5:2a:
                    03:79:b3:32:d2:75:ce:67:cb:9d:1e:61:30:c4:d7:
                    9d:37:f4:16:47:b5:05:58:9c:59:8a:ab:3a:d6:5b:
                    7f:cd:d8:de:0b:58:8c:bc:6b:65:89:1e:09:59:67:
                    22:b2:c1:6c:df:ac:12:6b:2d:db:8d:5d:2b:fc:62:
                    ee:ea:3a:63:7d:3a:8b:04:7c:f0:38:c7:36:61:55:
                    ca:55:4b:d4:0c:fb:2b:24:ec:b9:24:3b:d4:fe:d2:
                    3d:64:8f:05:6a:8b:e3:1f:09:0e:83:a1:24:32:dd:
                    f4:0e:de:48:71:1a:f2:f7:ea:63:55:73:54:6e:d8:
                    4a:fd:81:56:ad:65:4d:ba:c3:c8:f2:3a:ad:b5:71:
                    8a:ca:4c:20:e4:39:91:26:6c:84:c6:77:48:0b:bb:
                    57:f5
                Exponent: 65537 (0x10001)
        X509v3 extensions:
            X509v3 Basic Constraints: 
                CA:FALSE
            X509v3 Key Usage: 
                Digital Signature, Non Repudiation, Key Encipherment
            X509v3 Extended Key Usage: 
                TLS Web Server Authentication, TLS Web Client Authentication
            Netscape Comment: 
                OpenSSL Generated Certificate
            X509v3 Subject Key Identifier: 
                55:60:4E:19:BB:B8:CF:E5:F5:2C:A3:F9:F4:EF:93:8B:54:BF:99:85
            X509v3 Authority Key Identifier: 
                29:E0:A6:75:31:60:F2:16:88:B8:2A:30:E1:91:7F:FC:1F:57:00:92
    Signature Algorithm: sha1WithRSAEncryption
    Signature Value:
        24:dd:cd:7a:31:f9:d4:1c:30:66:36:aa:71:8d:1e:4f:19:b5:
        04:d2:bb:0c:20:c0:52:6a:96:27:dc:55:c2:c3:e5:cb:01:74:
        a6:18:4d:91:d8:e2:78:78:b6:d1:e2:07:19:27:57:13:de:20:
        47:88:17:b7:c9:db:3e:61:07:67:78:6e:a4:02:eb:e5:56:a6:
        93:e8:2e:0e:10:73:8e:bd:c5:4d:98:3b:17:a5:4e:32:dc:69:
        47:3e:9d:1d:55:48:f4:44:26:52:41:bc:93:18:85:31:cb:23:
        5b:4e:2f:19:da:1d:ce:6f:3a:2d:9a:b9:65:ac:69:54:74:c1:
        fc:b9:ea:12:24:04:58:29:11:04:aa:41:7d:81:5e:26:37:e9:
        27:fe:98:00:86:bf:da:f5:9f:47:fa:d9:ec:3a:15:27:3a:51:
        c2:0c:d5:2e:53:db:cd:12:55:f4:24:5e:e3:9a:2b:30:25:a0:
        62:32:65:fb:49:38:9c:af:4c:d2:58:65:c5:43:fd:60:fd:e3:
        fe:94:9e:79:ee:91:f2:7d:d7:73:58:19:08:ad:78:2c:2a:3e:
        52:85:03:b0:32:0b:c8:33:21:d8:d2:c1:e6:7b:7f:13:7c:94:
        d4:de:76:c4:bf:b1:75:4a:66:20:13:47:a9:3e:31:e7:29:4c:
        bf:9f:e1:51
-----BEGIN CERTIFICATE-----
MIIElDCCA3ygAwIBAgIBAjANBgkqhkiG9w0BAQUFADCBtzELMAkGA1UEBhMCQkEx
GTAXBgNVBAgTEFJlcHVibGlrYSBTcnBza2ExEzARBgNVBAcTCkJhbmphIEx1a2Ex
ITAfBgNVBAoTGEVsZWt0cm90ZWhuaWNraSBmYWt1bHRldDEtMCsGA1UECxMkS2F0
ZWRyYSB6YSByYWN1bmFyc3R2byBpIGluZm9ybWF0aWt1MQswCQYDVQQDEwJjYTEZ
MBcGCSqGSIb3DQEJARYKY2FAZXRmLmNvbTAeFw0yNjAxMjQxMjI2NTFaFw0zNjAx
MjIxMjI2NTFaMIG3MQswCQYDVQQGEwJCQTEZMBcGA1UECBMQUmVwdWJsaWthIFNy
cHNrYTETMBEGA1UEBxMKQmFuamEgTHVrYTEhMB8GA1UEChMYRWxla3Ryb3RlaG5p
Y2tpIGZha3VsdGV0MS0wKwYDVQQLEyRLYXRlZHJhIHphIHJhY3VuYXJzdHZvIGkg
aW5mb3JtYXRpa3UxCzAJBgNVBAMTAmMyMRkwFwYJKoZIhvcNAQkBFgpjMkBldGYu
Y29tMIIBIjANBgkqhkiG9w0BAQEFAAOCAQ8AMIIBCgKCAQEA4uoWvb3Rn6gGIds9
hmpKFVxjVDvAk+/8VwyjrG37HtJ3tnZ/MOg/WCWeQ+myJp590MSrl8ctOwE5ptk5
Ex+F5UrpEW1467yHhS0ikq37brXYeLNBzZ7iNgr6E3cEZ2RLAWiALeUfpSoDebMy
0nXOZ8udHmEwxNedN/QWR7UFWJxZiqs61lt/zdjeC1iMvGtliR4JWWcissFs36wS
ay3bjV0r/GLu6jpjfTqLBHzwOMc2YVXKVUvUDPsrJOy5JDvU/tI9ZI8FaovjHwkO
g6EkMt30Dt5IcRry9+pjVXNUbthK/YFWrWVNusPI8jqttXGKykwg5DmRJmyExndI
C7tX9QIDAQABo4GoMIGlMAkGA1UdEwQCMAAwCwYDVR0PBAQDAgXgMB0GA1UdJQQW
MBQGCCsGAQUFBwMBBggrBgEFBQcDAjAsBglghkgBhvhCAQ0EHxYdT3BlblNTTCBH
ZW5lcmF0ZWQgQ2VydGlmaWNhdGUwHQYDVR0OBBYEFFVgThm7uM/l9Syj+fTvk4tU
v5mFMB8GA1UdIwQYMBaAFCngpnUxYPIWiLgqMOGRf/wfVwCSMA0GCSqGSIb3DQEB
BQUAA4IBAQAk3c16MfnUHDBmNqpxjR5PGbUE0rsMIMBSapYn3FXCw+XLAXSmGE2R
2OJ4eLbR4gcZJ1cT3iBHiBe3yds+YQdneG6kAuvlVqaT6C4OEHOOvcVNmDsXpU4y
3GlHPp0dVUj0RCZSQbyTGIUxyyNbTi8Z2h3ObzotmrllrGlUdMH8ueoSJARYKREE
qkF9gV4mN+kn/pgAhr/a9Z9H+tnsOhUnOlHCDNUuU9vNElX0JF7jmiswJaBiMmX7
STicr0zSWGXFQ/1g/eP+lJ557pHyfddzWBkIrXgsKj5ShQOwMgvIMyHY0sHme38T
fJTU3nbEv7F1SmYgE0epPjHnKUy/n+FR
-----END CERTIFICATE-----
