Certificate:
    Data:
        Version: 3 (0x2)
        Serial Number: 1 (0x1)
        Signature Algorithm: sha1WithRSAEncryption
        Issuer: C=BA, ST=RS, L=Banja Luka, O=Elektrotehnicki fakultet, CN=Ca@tijelo.etf/emailAddress=ca@tijelo.etf
        Validity
            Not Before: Jan 26 10:46:17 2026 GMT
            Not After : Jan 31 10:46:17 2026 GMT
        Subject: C=BA, ST=RS, O=Elektrotehnicki fakultet, O=Ekonomski fakultet, O=Medicinski fakultet, CN=client2@bezCA@etf.com/emailAddress=client2@etf.com
        Subject Public Key Info:
            Public Key Algorithm: rsaEncryption
                Public-Key: (2048 bit)
                Modulus:
                    00:ea:6c:8f:db:89:5c:2a:00:e6:11:39:0d:9a:4c:
                    86:4f:a6:ee:44:c6:fa:5e:44:13:4d:49:19:94:7d:
                    af:a9:7d:09:af:0d:a1:b7:42:56:f6:be:c5:2a:df:
                    f6:9f:0d:e1:2d:c8:be:01:87:ef:28:6c:90:4c:f3:
                    c5:d6:7c:1f:07:ce:b4:e6:1d:bd:eb:38:26:43:2f:
                    1f:c5:da:e4:74:84:d8:e8:25:07:68:47:af:bb:1b:
                    fb:59:c9:39:c8:7b:a7:53:c5:50:e4:30:18:81:d6:
                    2e:43:f2:6e:0d:82:df:a5:63:17:dc:6f:94:1f:fd:
                    2a:98:88:a6:57:27:33:3e:bd:9d:49:d2:1f:70:5f:
                    40:33:ce:77:48:a5:66:7a:e1:0e:8f:39:f4:93:58:
                    05:a8:57:3c:dd:f3:af:05:d0:28:54:69:3e:29:82:
                    18:fe:98:7b:94:1c:0c:1b:89:a0:19:4a:8d:30:00:
                    80:7a:9f:9c:82:c0:06:b0:bd:ca:4c:e6:03:0a:bc:
                    34:83:f0:6b:63:7d:36:e2:6d:3a:09:18:b2:28:f8:
                    52:c5:69:e9:33:df:ab:b1:a8:fc:06:57:0f:d3:4d:
                    d0:6c:00:17:d2:5a:9b:f8:32:f9:81:78:71:04:bd:
                    6d:56:00:00:ac:99:30:ca:53:8d:08:4d:34:81:09:
                    29:a5
                Exponent: 65537 (0x10001)
        X509v3 extensions:
            X509v3 Basic Constraints: 
                CA:FALSE
            X509v3 Key Usage: 
                Digital Signature
            X509v3 Extended Key Usage: 
                TLS Web Client Authentication
            Netscape Comment: 
                OpenSSL Generated Certificate
            X509v3 Subject Key Identifier: 
                0A:42:B3:A2:8F:DA:AA:03:F5:FC:ED:16:E1:55:27:FA:07:EF:1A:AC
            X509v3 Authority Key Identifier: 
                FD:6F:4E:17:86:F0:CE:45:C9:86:DD:25:EB:4B:E0:E2:6B:BA:69:76
            X509v3 CRL Distribution Points: 
                Full Name:
                  URI:http://192.168.21.89/rootcrl.pem
    Signature Algorithm: sha1WithRSAEncryption
    Signature Value:
        29:52:2e:9f:48:7d:81:11:84:f3:fb:4c:53:14:a6:0b:aa:b3:
        e5:58:00:3c:e9:4c:76:6b:e6:05:f5:1f:b9:3e:31:9a:2d:62:
        75:6d:db:0c:84:d1:34:f3:10:83:cf:e1:f6:26:04:59:75:e0:
        de:a1:23:ef:c2:3d:65:0c:3b:26:0d:2e:82:53:04:e6:ec:35:
        d6:62:cd:50:2e:1a:69:9e:b9:8f:93:d0:cd:cd:3d:77:93:04:
        68:8d:1a:b6:f4:04:de:9b:d6:20:e0:69:9c:37:92:74:b2:e7:
        b4:e7:c2:8e:3b:ef:94:4e:38:1c:1e:89:fd:f6:bb:eb:99:d0:
        73:07:df:e4:04:42:e8:ba:f7:2f:39:13:96:be:6a:ec:b7:fe:
        f3:ff:ed:be:a5:76:dc:2b:77:be:16:73:bb:fb:d4:34:9c:11:
        2b:0b:b5:0c:b1:f7:21:49:18:7c:99:ab:9f:b6:40:a1:60:0f:
        3c:83:7f:5c:e5:2f:cd:39:d6:c6:12:e8:9e:76:a3:ae:8b:9a:
        dc:c3:9e:06:d2:54:5a:ab:84:b7:34:28:56:e7:3b:ab:47:2c:
        bc:09:b3:be:77:69:f7:c2:3a:69:53:c9:99:a6:2b:b5:9a:7b:
        50:3f:e2:de:ad:67:b9:ea:cd:8a:eb:84:38:d3:8f:e7:59:f2:
        34:72:55:ee:87:7b:51:1a:26:4d:c4:74:6c:02:54:db:0d:9a:
        9d:93:fd:c4:d9:39:27:21:58:d6:67:56:29:cd:b3:77:d0:f0:
        b8:da:39:e2:e0:93:09:29:ab:90:d8:99:ba:be:8f:94:5b:4c:
        22:46:c9:ad:c5:7c:88:59:f0:57:5e:26:46:a7:ff:98:35:d2:
        05:b5:9d:dd:a5:bd:2b:26:d4:4f:23:a3:c9:57:35:6d:66:6e:
        9a:b7:ce:ab:6d:d9:04:d2:ea:5b:cd:4c:ae:25:14:1b:f6:9a:
        6f:96:10:0d:ab:2f:07:2c:bc:c5:fb:4d:36:7c:37:dd:87:a0:
        3e:3d:ab:fb:8f:b5:86:7a:0b:26:99:e0:f1:55:99:2b:00:7e:
        54:fc:58:aa:90:9f:30:ee:bd:44:93:c0:11:4f:b4:da:25:bd:
        18:5c:af:33:02:fb:7f:41:ff:02:ce:4d:4f:af:86:e1:6b:10:
        1a:0e:cc:40:5a:9a:3c:7e:b0:2f:09:ff:eb:3e:83:2c:7d:f8:
        c2:e7:ab:af:3c:fd:44:58:5b:83:75:dd:2c:e1:b9:4d:3d:1e:
        a2:44:86:1c:63:c5:01:bb:11:81:5b:3a:ce:47:2d:2c:52:c0:
        0f:24:5e:da:66:3a:5f:3f:a9:dd:5b:a4:c0:76:0a:f7:4f:e1:
        09:cf:28:8f:50:51:3a:aa
-----BEGIN CERTIFICATE-----
MIIFjzCCA3egAwIBAgIBATANBgkqhkiG9w0BAQUFADCBiDELMAkGA1UEBhMCQkEx
CzAJBgNVBAgTAlJTMRMwEQYDVQQHEwpCYW5qYSBMdWthMSEwHwYDVQQKExhFbGVr
dHJvdGVobmlja2kgZmFrdWx0ZXQxFjAUBgNVBAMUDUNhQHRpamVsby5ldGYxHDAa
BgkqhkiG9w0BCQEWDWNhQHRpamVsby5ldGYwHhcNMjYwMTI2MTA0NjE3WhcNMjYw
MTMxMTA0NjE3WjCBuDELMAkGA1UEBhMCQkExCzAJBgNVBAgTAlJTMSEwHwYDVQQK
ExhFbGVrdHJvdGVobmlja2kgZmFrdWx0ZXQxGzAZBgNVBAoTEkVrb25vbXNraSBm
YWt1bHRldDEcMBoGA1UEChMTTWVkaWNpbnNraSBmYWt1bHRldDEeMBwGA1UEAxQV
Y2xpZW50MkBiZXpDQUBldGYuY29tMR4wHAYJKoZIhvcNAQkBFg9jbGllbnQyQGV0
Zi5jb20wggEiMA0GCSqGSIb3DQEBAQUAA4IBDwAwggEKAoIBAQDqbI/biVwqAOYR
OQ2aTIZPpu5ExvpeRBNNSRmUfa+pfQmvDaG3Qlb2vsUq3/afDeEtyL4Bh+8obJBM
88XWfB8HzrTmHb3rOCZDLx/F2uR0hNjoJQdoR6+7G/tZyTnIe6dTxVDkMBiB1i5D
8m4Ngt+lYxfcb5Qf/SqYiKZXJzM+vZ1J0h9wX0AzzndIpWZ64Q6POfSTWAWoVzzd
868F0ChUaT4pghj+mHuUHAwbiaAZSo0wAIB6n5yCwAawvcpM5gMKvDSD8GtjfTbi
bToJGLIo+FLFaekz36uxqPwGVw/TTdBsABfSWpv4MvmBeHEEvW1WAACsmTDKU40I
TTSBCSmlAgMBAAGjgdEwgc4wCQYDVR0TBAIwADALBgNVHQ8EBAMCB4AwEwYDVR0l
BAwwCgYIKwYBBQUHAwIwLAYJYIZIAYb4QgENBB8WHU9wZW5TU0wgR2VuZXJhdGVk
IENlcnRpZmljYXRlMB0GA1UdDgQWBBQKQrOij9qqA/X87RbhVSf6B+8arDAfBgNV
HSMEGDAWgBT9b04XhvDORcmG3SXrS+Dia7ppdjAxBgNVHR8EKjAoMCagJKAihiBo
dHRwOi8vMTkyLjE2OC4yMS44OS9yb290Y3JsLnBlbTANBgkqhkiG9w0BAQUFAAOC
AgEAKVIun0h9gRGE8/tMUxSmC6qz5VgAPOlMdmvmBfUfuT4xmi1idW3bDITRNPMQ
g8/h9iYEWXXg3qEj78I9ZQw7Jg0uglME5uw11mLNUC4aaZ65j5PQzc09d5MEaI0a
tvQE3pvWIOBpnDeSdLLntOfCjjvvlE44HB6J/fa765nQcwff5ARC6Lr3LzkTlr5q
7Lf+8//tvqV23Ct3vhZzu/vUNJwRKwu1DLH3IUkYfJmrn7ZAoWAPPIN/XOUvzTnW
xhLonnajroua3MOeBtJUWquEtzQoVuc7q0csvAmzvndp98I6aVPJmaYrtZp7UD/i
3q1nuerNiuuEONOP51nyNHJV7od7URomTcR0bAJU2w2anZP9xNk5JyFY1mdWKc2z
d9DwuNo54uCTCSmrkNiZur6PlFtMIkbJrcV8iFnwV14mRqf/mDXSBbWd3aW9KybU
TyOjyVc1bWZumrfOq23ZBNLqW81MriUUG/aab5YQDasvByy8xftNNnw33YegPj2r
+4+1hnoLJpng8VWZKwB+VPxYqpCfMO69RJPAEU+02iW9GFyvMwL7f0H/As5NT6+G
4WsQGg7MQFqaPH6wLwn/6z6DLH34wuerrzz9RFhbg3XdLOG5TT0eokSGHGPFAbsR
gVs6zkctLFLADyRe2mY6Xz+p3VukwHYK90/hCc8oj1BROqo=
-----END CERTIFICATE-----
