Certificate:
    Data:
        Version: 3 (0x2)
        Serial Number: 2 (0x2)
        Signature Algorithm: sha1WithRSAEncryption
        Issuer: C=BA, ST=RS, L=Banja Luka, O=Elektrotehnicki fakultet, CN=Ca@tijelo.etf/emailAddress=ca@tijelo.etf
        Validity
            Not Before: Jan 26 10:47:23 2026 GMT
            Not After : Jan 31 10:47:23 2026 GMT
        Subject: C=BA, ST=RS, O=Elektrotehnicki fakultet, O=Ne, O=Ne, CN=client3/emailAddress=client3@ca.etf
        Subject Public Key Info:
            Public Key Algorithm: rsaEncryption
                Public-Key: (2048 bit)
                Modulus:
                    00:97:18:a4:bf:30:df:84:41:b5:73:af:24:6f:66:
                    0d:eb:d0:bc:b6:63:cb:f7:e4:dc:90:59:bf:1c:c5:
                    ad:14:b4:42:28:fc:16:a4:cb:21:b7:97:55:b2:ce:
                    b3:23:7b:12:60:6d:e8:f2:99:cc:3e:a4:78:1a:66:
                    d9:38:32:2c:2d:97:01:59:91:a8:d9:10:97:64:13:
                    46:78:8b:43:f8:96:ce:3e:0f:07:ec:f7:ff:5d:cf:
                    4f:29:0a:47:d5:81:89:58:d2:16:b0:9c:4b:4c:2f:
                    e7:cb:e3:f4:1c:3b:1d:b3:48:c8:40:5d:c5:7a:c9:
                    d1:e6:82:c2:b8:91:37:38:a9:95:e9:cf:fa:c6:e3:
                    cd:65:3d:2e:23:e5:7d:37:c3:40:18:cc:17:f9:a1:
                    16:58:5d:02:16:f2:33:36:52:8f:74:54:19:a1:2a:
                    71:a4:6b:cf:a7:c6:35:be:80:19:11:d8:a7:ae:d4:
                    d2:e3:a7:37:9e:3f:4a:a0:c8:4d:fa:28:9b:6e:5d:
                    8a:67:c4:90:69:3e:f8:fb:f8:ed:80:8b:7c:50:0a:
                    88:d1:3a:37:53:8b:da:ef:be:91:91:5e:b5:15:3c:
                    24:34:c0:35:5f:14:85:32:1a:9c:b2:21:d9:1a:6a:
                    0b:5a:96:84:e4:80:19:1b:3f:8c:ca:29:11:a6:63:
                    62:df
                Exponent: 65537 (0x10001)
        X509v3 extensions:
            X509v3 Basic Constraints: 
                CA:TRUE
            X509v3 Key Usage: 
                Digital Signature
            X509v3 Extended Key Usage: 
                TLS Web Client Authentication
            Netscape Comment: 
                OpenSSL Generated Certificate
            X509v3 Subject Key Identifier: 
                68:D3:6E:E9:20:AE:42:8E:14:54:A4:14:62:F0:2A:FB:8D:2B:DF:45
            X509v3 Authority Key Identifier: 
                FD:6F:4E:17:86:F0:CE:45:C9:86:DD:25:EB:4B:E0:E2:6B:BA:69:76
            X509v3 CRL Distribution Points: 
                Full Name:
                  URI:http://192.168.21.89/rootcrl.pem
    Signature Algorithm: sha1WithRSAEncryption
    Signature Value:
        43:03:7c:db:ba:66:ec:d3:ca:3e:13:f3:a1:cb:cd:c7:79:d8:
        5a:cd:1e:b9:21:05:1d:ec:41:0e:e3:2a:4f:ce:fd:c4:f0:0a:
        7a:b2:59:ce:30:48:1d:9d:85:81:b4:f7:37:0a:79:56:a1:57:
        df:08:86:30:fb:7c:61:a0:b0:46:25:9d:15:7c:93:4c:5d:27:
        fd:d4:7c:0b:70:c2:dd:be:b1:93:87:ea:6c:f6:60:b5:9b:f9:
        89:f6:08:c0:a1:e8:a3:41:eb:da:25:35:0b:d9:36:48:fc:67:
        19:3f:34:d1:66:1f:ce:38:81:f6:e9:aa:9a:81:c7:12:46:03:
        19:a5:54:a7:25:c7:6f:0e:44:e4:35:8e:92:00:a6:b3:13:cf:
        bd:bc:5c:ce:6f:c7:84:73:11:de:60:a4:2d:4c:e7:68:73:b7:
        09:05:6e:5f:42:40:6c:60:1e:37:75:dd:2c:1d:26:1a:53:b8:
        b8:7e:c9:25:0c:45:5e:b8:ac:8f:12:ae:de:6c:8b:c7:70:37:
        aa:a3:fd:a8:85:1f:80:68:a0:63:1c:9c:b5:a1:d2:a8:94:65:
        60:35:b1:38:5f:91:9c:7c:6b:fd:a0:c9:8e:02:e1:42:42:08:
        f8:e0:d3:76:70:64:27:0d:9a:6f:61:dc:4c:60:58:f3:5f:d4:
        ff:15:0e:d9:92:32:3b:6f:a7:e1:51:bf:7f:12:1a:34:d3:d0:
        77:e2:c8:18:e6:2b:05:d4:f3:1c:f0:e5:50:58:d7:b5:74:f0:
        36:ec:3c:1d:d6:3d:d2:b7:2d:59:55:f9:ed:15:40:b6:3c:13:
        b3:77:18:73:f3:70:78:14:bd:3f:58:cb:64:1e:a1:63:b3:e8:
        e1:a0:00:66:8d:f4:44:4d:b6:15:f8:55:f0:d9:da:39:e9:45:
        35:5f:d1:5f:26:59:af:b6:37:c5:d6:b1:de:90:84:56:6c:7f:
        ae:61:c2:7e:67:a7:c9:80:ee:99:3a:13:2f:57:b0:3b:10:ab:
        46:5e:32:4d:d4:df:42:1c:b7:0f:3b:c1:4a:42:85:b0:f4:37:
        55:04:30:89:bd:f3:d3:ab:0d:28:67:2c:12:9e:72:5a:d8:ef:
        7b:9e:b4:dc:30:b7:87:ee:ac:55:09:b3:26:e4:e5:4f:9f:f2:
        ad:fc:bb:6e:c7:d9:17:ec:e9:12:b6:e0:c8:68:4c:ca:fc:a6:
        db:e7:cf:a6:76:b6:70:de:2b:8d:f7:cc:1c:7d:19:21:e5:31:
        fc:9a:fc:2b:65:9f:6b:6a:3a:0a:dd:f1:c4:4c:b2:26:de:47:
        44:af:48:b1:c8:49:cc:ce:ab:51:3a:d6:eb:86:b2:10:0d:a3:
        30:4c:64:35:80:6c:f0:c2
-----BEGIN CERTIFICATE-----
MIIFYjCCA0qgAwIBAgIBAjANBgkqhkiG9w0BAQUFADCBiDELMAkGA1UEBhMCQkEx
CzAJBgNVBAgTAlJTMRMwEQYDVQQHEwpCYW5qYSBMdWthMSEwHwYDVQQKExhFbGVr
dHJvdGVobmlja2kgZmFrdWx0ZXQxFjAUBgNVBAMUDUNhQHRpamVsby5ldGYxHDAa
BgkqhkiG9w0BCQEWDWNhQHRpamVsby5ldGYwHhcNMjYwMTI2MTA0NzIzWhcNMjYw
MTMxMTA0NzIzWjCBiDELMAkGA1UEBhMCQkExCzAJBgNVBAgTAlJTMSEwHwYDVQQK
ExhFbGVrdHJvdGVobmlja2kgZmFrdWx0ZXQxCzAJBgNVBAoTAk5lMQswCQYDVQQK
EwJOZTEQMA4GA1UEAxMHY2xpZW50MzEdMBsGCSqGSIb3DQEJARYOY2xpZW50M0Bj
YS5ldGYwggEiMA0GCSqGSIb3DQEBAQUAA4IBDwAwggEKAoIBAQCXGKS/MN+EQbVz
ryRvZg3r0Ly2Y8v35NyQWb8cxa0UtEIo/BakyyG3l1WyzrMjexJgbejymcw+pHga
Ztk4MiwtlwFZkajZEJdkE0Z4i0P4ls4+Dwfs9/9dz08pCkfVgYlY0hawnEtML+fL
4/QcOx2zSMhAXcV6ydHmgsK4kTc4qZXpz/rG481lPS4j5X03w0AYzBf5oRZYXQIW
8jM2Uo90VBmhKnGka8+nxjW+gBkR2Keu1NLjpzeeP0qgyE36KJtuXYpnxJBpPvj7
+O2Ai3xQCojROjdTi9rvvpGRXrUVPCQ0wDVfFIUyGpyyIdkaagtaloTkgBkbP4zK
KRGmY2LfAgMBAAGjgdQwgdEwDAYDVR0TBAUwAwEB/zALBgNVHQ8EBAMCB4AwEwYD
VR0lBAwwCgYIKwYBBQUHAwIwLAYJYIZIAYb4QgENBB8WHU9wZW5TU0wgR2VuZXJh
dGVkIENlcnRpZmljYXRlMB0GA1UdDgQWBBRo027pIK5CjhRUpBRi8Cr7jSvfRTAf
BgNVHSMEGDAWgBT9b04XhvDORcmG3SXrS+Dia7ppdjAxBgNVHR8EKjAoMCagJKAi
hiBodHRwOi8vMTkyLjE2OC4yMS44OS9yb290Y3JsLnBlbTANBgkqhkiG9w0BAQUF
AAOCAgEAQwN827pm7NPKPhPzocvNx3nYWs0euSEFHexBDuMqT879xPAKerJZzjBI
HZ2FgbT3Nwp5VqFX3wiGMPt8YaCwRiWdFXyTTF0n/dR8C3DC3b6xk4fqbPZgtZv5
ifYIwKHoo0Hr2iU1C9k2SPxnGT800WYfzjiB9umqmoHHEkYDGaVUpyXHbw5E5DWO
kgCmsxPPvbxczm/HhHMR3mCkLUznaHO3CQVuX0JAbGAeN3XdLB0mGlO4uH7JJQxF
XrisjxKu3myLx3A3qqP9qIUfgGigYxyctaHSqJRlYDWxOF+RnHxr/aDJjgLhQkII
+ODTdnBkJw2ab2HcTGBY81/U/xUO2ZIyO2+n4VG/fxIaNNPQd+LIGOYrBdTzHPDl
UFjXtXTwNuw8HdY90rctWVX57RVAtjwTs3cYc/NweBS9P1jLZB6hY7Po4aAAZo30
RE22FfhV8NnaOelFNV/RXyZZr7Y3xdax3pCEVmx/rmHCfmenyYDumToTL1ewOxCr
Rl4yTdTfQhy3DzvBSkKFsPQ3VQQwib3z06sNKGcsEp5yWtjve5603DC3h+6sVQmz
JuTlT5/yrfy7bsfZF+zpErbgyGhMyvym2+fPpna2cN4rjffMHH0ZIeUx/Jr8K2Wf
a2o6Ct3xxEyyJt5HRK9IschJzM6rUTrW64ayEA2jMExkNYBs8MI=
-----END CERTIFICATE-----
