Certificate:
    Data:
        Version: 3 (0x2)
        Serial Number: 3 (0x3)
        Signature Algorithm: sha1WithRSAEncryption
        Issuer: C=BA, ST=RS, L=Banja Luka, O=Elektrotehnicki fakultet, CN=Ca@tijelo.etf/emailAddress=ca@tijelo.etf
        Validity
            Not Before: Jan 26 10:50:03 2026 GMT
            Not After : Jan 31 10:50:03 2026 GMT
        Subject: C=BA, ST=RS, O=Elektrotehnicki fakultet, O=Ne, O=Ne, CN=client3/emailAddress=client3@ca.etf
        Subject Public Key Info:
            Public Key Algorithm: rsaEncryption
                Public-Key: (2048 bit)
                Modulus:
                    00:97:18:a4:bf:30:df:84:41:b5:73:af:24:6f:66:
                    0d:eb:d0:bc:b6:63:cb:f7:e4:dc:90:59:bf:1c:c5:
                    ad:14:b4:42:28:fc:16:a4:cb:21:b7:97:55:b2:ce:
                    b3:23:7b:12:60:6d:e8:f2:99:cc:3e:a4:78:1a:66:
                    d9:38:32:2c:2d:97:01:59:91:a8:d9:10:97:64:13:
                    46:78:8b:43:f8:96:ce:3e:0f:07:ec:f7:ff:5d:cf:
                    4f:29:0a:47:d5:81:89:58:d2:16:b0:9c:4b:4c:2f:
                    e7:cb:e3:f4:1c:3b:1d:b3:48:c8:40:5d:c5:7a:c9:
                    d1:e6:82:c2:b8:91:37:38:a9:95:e9:cf:fa:c6:e3:
                    cd:65:3d:2e:23:e5:7d:37:c3:40:18:cc:17:f9:a1:
                    16:58:5d:02:16:f2:33:36:52:8f:74:54:19:a1:2a:
                    71:a4:6b:cf:a7:c6:35:be:80:19:11:d8:a7:ae:d4:
                    d2:e3:a7:37:9e:3f:4a:a0:c8:4d:fa:28:9b:6e:5d:
                    8a:67:c4:90:69:3e:f8:fb:f8:ed:80:8b:7c:50:0a:
                    88:d1:3a:37:53:8b:da:ef:be:91:91:5e:b5:15:3c:
                    24:34:c0:35:5f:14:85:32:1a:9c:b2:21:d9:1a:6a:
                    0b:5a:96:84:e4:80:19:1b:3f:8c:ca:29:11:a6:63:
                    62:df
                Exponent: 65537 (0x10001)
        X509v3 extensions:
            X509v3 Basic Constraints: 
                CA:TRUE
            X509v3 Key Usage: 
                Digital Signature
            X509v3 Extended Key Usage: 
                TLS Web Client Authentication
            Netscape Comment: 
                OpenSSL Generated Certificate
            X509v3 Subject Key Identifier: 
                68:D3:6E:E9:20:AE:42:8E:14:54:A4:14:62:F0:2A:FB:8D:2B:DF:45
            X509v3 Authority Key Identifier: 
                FD:6F:4E:17:86:F0:CE:45:C9:86:DD:25:EB:4B:E0:E2:6B:BA:69:76
            X509v3 CRL Distribution Points: 
                Full Name:
                  URI:http://192.168.21.89/rootcrl.pem
    Signature Algorithm: sha1WithRSAEncryption
    Signature Value:
        9b:fe:1b:a7:0d:1e:07:c1:38:63:21:a5:e4:c8:92:5f:bb:2a:
        8d:a4:57:c7:21:99:5a:c1:e8:e8:6b:4b:85:aa:bb:f0:78:77:
        51:de:50:12:21:59:d7:8a:39:55:ef:f2:cd:89:af:ae:68:74:
        1b:1f:b1:38:c1:2c:92:68:ef:8f:b7:12:13:43:30:69:25:d7:
        f7:38:bb:4d:fb:48:a9:50:12:f4:d2:25:34:b2:eb:2a:44:a1:
        6e:da:70:f7:cd:be:65:6f:27:8c:e8:0e:21:f8:7e:91:3e:11:
        91:43:8c:44:ef:a0:35:a9:7f:80:f1:01:e8:22:f2:7c:47:71:
        a0:42:fa:66:07:6e:4b:83:47:26:50:60:76:4d:b4:2d:1a:27:
        a4:4c:7c:a6:50:10:d7:5a:8c:55:93:4c:8b:4f:ef:9e:39:76:
        b8:18:bd:6a:96:c7:f9:41:b2:1c:d8:1c:13:e5:a1:b8:c4:c5:
        46:e3:0a:fb:d3:49:ee:29:59:09:6d:f9:f4:aa:bd:d6:40:76:
        60:ba:43:7e:1e:f8:37:cc:f4:79:96:ca:06:55:be:d8:3f:c1:
        62:d7:9f:d9:3a:09:33:37:be:e1:74:86:b0:6f:41:37:a9:c6:
        d0:e5:45:73:10:81:ff:6f:b2:b5:09:21:49:c3:db:d6:80:ea:
        bb:b9:0c:2a:51:d2:1d:b1:a6:6e:c3:04:cd:dc:4b:a9:a7:79:
        be:dd:fb:b1:c5:d3:0f:dd:7c:6e:1c:22:cf:61:72:2d:99:95:
        f0:42:8f:51:61:f7:e3:d2:38:71:94:1d:84:8e:df:75:87:d8:
        c9:bf:21:0b:7f:5e:3c:d4:26:75:c9:30:df:1b:31:1b:30:de:
        5e:08:6d:94:e4:b5:c1:c0:9a:a1:71:20:76:87:99:a7:81:d7:
        22:90:0b:b8:30:be:30:a6:5b:3f:54:c5:0e:38:2f:9b:3e:7c:
        14:e5:60:39:7f:7b:9f:e5:df:2c:66:d1:d4:67:28:63:f5:ed:
        84:a3:ca:c1:0e:78:3b:dd:79:01:6a:b7:e0:f6:8d:14:e2:9d:
        fd:8c:e2:8d:57:53:18:a7:ea:4b:d1:c2:c7:ac:e9:53:0f:2f:
        39:d7:ad:b7:6a:cb:17:a5:d5:8a:0d:13:aa:d8:aa:5d:96:39:
        f3:46:55:ea:b1:92:26:2b:77:2d:1e:aa:aa:ea:0d:4b:9e:5e:
        ea:b6:a8:95:f5:b0:84:ef:b6:96:4f:28:c4:2e:e0:8d:46:05:
        e1:ce:7e:ac:24:fb:d4:1d:db:dd:4c:2f:52:e1:99:33:aa:d8:
        6e:b5:89:8f:f4:85:61:47:62:b2:1a:06:fc:f7:47:93:15:52:
        f2:b3:31:00:aa:cb:7f:eb
-----BEGIN CERTIFICATE-----
MIIFYjCCA0qgAwIBAgIBAzANBgkqhkiG9w0BAQUFADCBiDELMAkGA1UEBhMCQkEx
CzAJBgNVBAgTAlJTMRMwEQYDVQQHEwpCYW5qYSBMdWthMSEwHwYDVQQKExhFbGVr
dHJvdGVobmlja2kgZmFrdWx0ZXQxFjAUBgNVBAMUDUNhQHRpamVsby5ldGYxHDAa
BgkqhkiG9w0BCQEWDWNhQHRpamVsby5ldGYwHhcNMjYwMTI2MTA1MDAzWhcNMjYw
MTMxMTA1MDAzWjCBiDELMAkGA1UEBhMCQkExCzAJBgNVBAgTAlJTMSEwHwYDVQQK
ExhFbGVrdHJvdGVobmlja2kgZmFrdWx0ZXQxCzAJBgNVBAoTAk5lMQswCQYDVQQK
EwJOZTEQMA4GA1UEAxMHY2xpZW50MzEdMBsGCSqGSIb3DQEJARYOY2xpZW50M0Bj
YS5ldGYwggEiMA0GCSqGSIb3DQEBAQUAA4IBDwAwggEKAoIBAQCXGKS/MN+EQbVz
ryRvZg3r0Ly2Y8v35NyQWb8cxa0UtEIo/BakyyG3l1WyzrMjexJgbejymcw+pHga
Ztk4MiwtlwFZkajZEJdkE0Z4i0P4ls4+Dwfs9/9dz08pCkfVgYlY0hawnEtML+fL
4/QcOx2zSMhAXcV6ydHmgsK4kTc4qZXpz/rG481lPS4j5X03w0AYzBf5oRZYXQIW
8jM2Uo90VBmhKnGka8+nxjW+gBkR2Keu1NLjpzeeP0qgyE36KJtuXYpnxJBpPvj7
+O2Ai3xQCojROjdTi9rvvpGRXrUVPCQ0wDVfFIUyGpyyIdkaagtaloTkgBkbP4zK
KRGmY2LfAgMBAAGjgdQwgdEwDAYDVR0TBAUwAwEB/zALBgNVHQ8EBAMCB4AwEwYD
VR0lBAwwCgYIKwYBBQUHAwIwLAYJYIZIAYb4QgENBB8WHU9wZW5TU0wgR2VuZXJh
dGVkIENlcnRpZmljYXRlMB0GA1UdDgQWBBRo027pIK5CjhRUpBRi8Cr7jSvfRTAf
BgNVHSMEGDAWgBT9b04XhvDORcmG3SXrS+Dia7ppdjAxBgNVHR8EKjAoMCagJKAi
hiBodHRwOi8vMTkyLjE2OC4yMS44OS9yb290Y3JsLnBlbTANBgkqhkiG9w0BAQUF
AAOCAgEAm/4bpw0eB8E4YyGl5MiSX7sqjaRXxyGZWsHo6GtLhaq78Hh3Ud5QEiFZ
14o5Ve/yzYmvrmh0Gx+xOMEskmjvj7cSE0MwaSXX9zi7TftIqVAS9NIlNLLrKkSh
btpw982+ZW8njOgOIfh+kT4RkUOMRO+gNal/gPEB6CLyfEdxoEL6ZgduS4NHJlBg
dk20LRonpEx8plAQ11qMVZNMi0/vnjl2uBi9apbH+UGyHNgcE+WhuMTFRuMK+9NJ
7ilZCW359Kq91kB2YLpDfh74N8z0eZbKBlW+2D/BYtef2ToJMze+4XSGsG9BN6nG
0OVFcxCB/2+ytQkhScPb1oDqu7kMKlHSHbGmbsMEzdxLqad5vt37scXTD918bhwi
z2FyLZmV8EKPUWH349I4cZQdhI7fdYfYyb8hC39ePNQmdckw3xsxGzDeXghtlOS1
wcCaoXEgdoeZp4HXIpALuDC+MKZbP1TFDjgvmz58FOVgOX97n+XfLGbR1GcoY/Xt
hKPKwQ54O915AWq34PaNFOKd/YzijVdTGKfqS9HCx6zpUw8vOdett2rLF6XVig0T
qtiqXZY580ZV6rGSJit3LR6qquoNS55e6raolfWwhO+2lk8oxC7gjUYF4c5+rCT7
1B3b3UwvUuGZM6rYbrWJj/SFYUdishoG/PdHkxVS8rMxAKrLf+s=
-----END CERTIFICATE-----
