Certificate:
    Data:
        Version: 3 (0x2)
        Serial Number: 82028295062 (0x1319447396)
    Signature Algorithm: sha1WithRSAEncryption
        Issuer: C=BA, ST=Republika Srpska, O=Elektrotehnicki fakultet, OU=Katedra za racunarstvo i informatiku, CN=Prvi zahtjev/emailAddress=mail@mail.com
        Validity
            Not Before: Jan 21 20:45:31 2017 GMT
            Not After : Jan 19 20:45:31 2027 GMT
        Subject: C=BA, ST=Republika Srpska, O=Elektrotehnicki fakultet, OU=Katedra za racunarstvo i informatiku, CN=Klijent 3/emailAddress=ca3@etfbl.net
        Subject Public Key Info:
            Public Key Algorithm: rsaEncryption
                Public-Key: (2048 bit)
                Modulus:
                    00:d9:49:61:0f:7b:ec:f8:8e:71:e4:cb:5a:f8:b6:
                    82:70:ac:da:43:88:6a:a3:58:0d:fb:e5:9e:87:8e:
                    09:14:f7:f6:4d:40:fe:af:2b:5c:f0:25:51:3e:2f:
                    8e:45:1f:0e:04:85:af:64:b2:26:03:07:ee:5e:f2:
                    87:87:df:34:cd:b2:56:a4:d3:f6:ed:3f:89:ff:c0:
                    50:99:e7:3a:4b:b7:2a:de:40:91:c5:b3:5c:67:0c:
                    39:dd:af:87:93:af:d8:62:6a:66:05:db:43:8e:18:
                    93:85:f2:78:c7:fc:42:a7:90:2d:1f:ff:64:b2:d0:
                    0a:b9:0a:a6:bb:6f:1f:48:98:04:4a:b0:51:70:3c:
                    52:99:5e:57:a2:0f:49:82:2e:e6:14:df:2c:26:79:
                    93:d2:e4:d3:ae:1e:64:c6:2f:8b:0a:40:74:f7:b7:
                    4b:ea:c8:a1:09:92:39:00:c6:e1:09:6d:56:a9:b4:
                    cb:fe:05:1d:fe:c6:87:fd:c3:33:2b:88:7f:a7:95:
                    9e:82:73:48:92:2e:1c:de:04:53:12:30:cd:0a:80:
                    18:30:4d:d5:cb:23:f0:73:e9:7e:2a:ce:8e:ac:37:
                    80:88:f0:b2:06:da:51:96:fd:34:c8:65:8a:f3:58:
                    b3:cf:e0:29:b0:00:96:22:58:5a:a1:79:5d:0b:f6:
                    b3:f7
                Exponent: 65537 (0x10001)
        X509v3 extensions:
            X509v3 Basic Constraints: 
                CA:FALSE
            Netscape Cert Type: 
                SSL Client, S/MIME
            X509v3 Key Usage: 
                Digital Signature, Non Repudiation, Key Encipherment
            Netscape Comment: 
                OpenSSL Generated Certificate
            X509v3 Subject Key Identifier: 
                A2:D7:9F:DA:DD:9C:AC:60:13:16:6E:E4:58:37:6C:C8:CF:CD:1E:D7
            X509v3 Authority Key Identifier: 
                keyid:4E:D3:8C:0F:A4:1D:5A:0A:B9:8E:D9:C8:45:B2:31:34:F7:69:A4:72

    Signature Algorithm: sha1WithRSAEncryption
         09:36:12:af:7e:b0:e6:b3:a2:3a:ca:70:ec:45:89:cd:06:fd:
         80:27:1d:9f:2a:6c:9a:2d:0e:14:d8:60:0c:55:fc:2f:10:a1:
         7c:23:e1:d7:b9:ae:35:11:43:13:65:40:ce:89:c8:15:a8:d9:
         30:ec:ab:29:73:fe:c1:00:b8:3f:10:44:f3:f8:6c:8c:aa:cd:
         d5:eb:99:9f:c3:09:0e:c1:9f:de:85:f0:57:09:22:59:60:c9:
         f7:b6:2d:d9:ae:0a:e7:dd:80:cc:06:e8:4b:27:24:68:86:67:
         20:c1:10:fe:05:93:3f:39:b2:1b:c5:2f:09:c4:7d:4a:99:4b:
         cb:7c:8f:52:a5:96:4e:75:9c:1b:08:90:4c:e4:15:79:ff:8e:
         66:c6:77:3b:3e:56:61:ef:54:da:54:a4:0c:19:dc:18:c6:f7:
         a1:9d:68:42:21:1d:7c:85:30:a1:6d:f2:f9:42:17:c9:9a:52:
         59:14:78:8a:19:94:17:b5:b9:83:4b:39:6b:d9:37:6a:1f:18:
         8b:ab:09:cc:c5:5a:56:49:72:b0:c6:87:9b:11:84:c6:dd:36:
         89:e1:cf:cb:96:e1:17:6b:37:53:00:4b:08:b7:c6:a3:13:2e:
         92:32:5c:87:81:70:3f:d4:b1:c1:1f:d9:c4:a6:73:61:ba:f9:
         66:50:94:d4
-----BEGIN CERTIFICATE-----
MIIEeTCCA2GgAwIBAgIFExlEc5YwDQYJKoZIhvcNAQEFBQAwga8xCzAJBgNVBAYT
AkJBMRkwFwYDVQQIExBSZXB1Ymxpa2EgU3Jwc2thMSEwHwYDVQQKExhFbGVrdHJv
dGVobmlja2kgZmFrdWx0ZXQxLTArBgNVBAsTJEthdGVkcmEgemEgcmFjdW5hcnN0
dm8gaSBpbmZvcm1hdGlrdTEVMBMGA1UEAxMMUHJ2aSB6YWh0amV2MRwwGgYJKoZI
hvcNAQkBFg1tYWlsQG1haWwuY29tMB4XDTE3MDEyMTIwNDUzMVoXDTI3MDExOTIw
NDUzMVowgawxCzAJBgNVBAYTAkJBMRkwFwYDVQQIExBSZXB1Ymxpa2EgU3Jwc2th
MSEwHwYDVQQKExhFbGVrdHJvdGVobmlja2kgZmFrdWx0ZXQxLTArBgNVBAsTJEth
dGVkcmEgemEgcmFjdW5hcnN0dm8gaSBpbmZvcm1hdGlrdTESMBAGA1UEAxMJS2xp
amVudCAzMRwwGgYJKoZIhvcNAQkBFg1jYTNAZXRmYmwubmV0MIIBIjANBgkqhkiG
9w0BAQEFAAOCAQ8AMIIBCgKCAQEA2UlhD3vs+I5x5Mta+LaCcKzaQ4hqo1gN++We
h44JFPf2TUD+rytc8CVRPi+ORR8OBIWvZLImAwfuXvKHh980zbJWpNP27T+J/8BQ
mec6S7cq3kCRxbNcZww53a+Hk6/YYmpmBdtDjhiThfJ4x/xCp5AtH/9kstAKuQqm
u28fSJgESrBRcDxSmV5Xog9Jgi7mFN8sJnmT0uTTrh5kxi+LCkB097dL6sihCZI5
AMbhCW1WqbTL/gUd/saH/cMzK4h/p5WegnNIki4c3gRTEjDNCoAYME3VyyPwc+l+
Ks6OrDeAiPCyBtpRlv00yGWK81izz+ApsACWIlhaoXldC/az9wIDAQABo4GcMIGZ
MAkGA1UdEwQCMAAwEQYJYIZIAYb4QgEBBAQDAgWgMAsGA1UdDwQEAwIF4DAsBglg
hkgBhvhCAQ0EHxYdT3BlblNTTCBHZW5lcmF0ZWQgQ2VydGlmaWNhdGUwHQYDVR0O
BBYEFKLXn9rdnKxgExZu5Fg3bMjPzR7XMB8GA1UdIwQYMBaAFE7TjA+kHVoKuY7Z
yEWyMTT3aaRyMA0GCSqGSIb3DQEBBQUAA4IBAQAJNhKvfrDms6I6ynDsRYnNBv2A
Jx2fKmyaLQ4U2GAMVfwvEKF8I+HXua41EUMTZUDOicgVqNkw7Kspc/7BALg/EETz
+GyMqs3V65mfwwkOwZ/ehfBXCSJZYMn3ti3Zrgrn3YDMBuhLJyRohmcgwRD+BZM/
ObIbxS8JxH1KmUvLfI9SpZZOdZwbCJBM5BV5/45mxnc7PlZh71TaVKQMGdwYxveh
nWhCIR18hTChbfL5QhfJmlJZFHiKGZQXtbmDSzlr2TdqHxiLqwnMxVpWSXKwxoeb
EYTG3TaJ4c/LluEXazdTAEsIt8ajEy6SMlyHgXA/1LHBH9nEpnNhuvlmUJTU
-----END CERTIFICATE-----
