Certificate:
    Data:
        Version: 3 (0x2)
        Serial Number: 55 (0x37)
        Signature Algorithm: sha1WithRSAEncryption
        Issuer: C=BA, ST=RS, O=Elektrotehnicki fakultet, OU=CA_ETF, CN=CA_tijelo/emailAddress=CA@tijelo.gmail/title=sdlkfj
        Validity
            Not Before: Jan 15 11:10:26 2026 GMT
            Not After : Jan 13 11:10:26 2036 GMT
        Subject: C=BA, ST=RS, O=Elektrotehnicki fakultet, OU=CA_ETF, CN=DLKSFJ
        Subject Public Key Info:
            Public Key Algorithm: rsaEncryption
                Public-Key: (4096 bit)
                Modulus:
                    00:cd:9b:4a:83:15:34:e4:fc:c7:1b:b1:ca:6c:8b:
                    29:3b:e1:b0:9f:2d:3e:16:35:65:12:cd:3e:32:41:
                    21:87:19:5e:91:09:4f:9b:f1:cd:ee:b0:11:c5:50:
                    c9:03:cd:c8:c3:eb:df:dc:a9:3c:03:53:80:57:7b:
                    6e:72:0b:57:83:3a:72:06:0d:37:43:77:e9:ed:eb:
                    e4:72:ef:b2:10:22:c1:5a:13:9f:11:f7:25:a2:68:
                    8b:d4:6a:41:37:57:a9:1d:ff:bb:d2:11:1c:09:35:
                    4c:bc:f4:79:57:fa:64:03:10:f9:1a:81:dd:42:1b:
                    47:03:cc:8b:e1:8a:7a:82:a8:56:7d:59:af:76:54:
                    37:42:f3:55:02:58:33:bf:37:5d:54:5f:85:29:e3:
                    c8:d4:e9:70:b7:68:d3:7f:65:21:d3:8e:00:25:0a:
                    75:cb:16:42:f9:fa:99:42:4b:9a:37:6a:59:3b:9e:
                    3d:03:17:59:54:84:33:d4:4c:12:7c:95:f4:5b:6b:
                    ad:de:6b:cb:e6:06:f5:17:a8:bd:e6:05:63:ea:6d:
                    38:e3:8f:bb:22:b4:c5:a7:8f:b7:c6:fc:57:f0:70:
                    56:a5:be:38:c2:75:e0:1c:35:53:0d:40:81:b1:40:
                    58:93:59:28:a2:80:5c:06:b6:36:3e:6f:8d:f3:c6:
                    a9:05:87:7e:65:c0:76:f9:71:36:96:da:a9:aa:19:
                    74:f0:7a:95:ff:40:44:7d:23:b7:86:b8:89:7d:41:
                    57:2d:34:22:23:29:49:e9:9b:9f:9f:cc:74:9f:9b:
                    f3:a5:45:b3:cf:fc:ad:d1:38:e4:90:a6:37:6b:5a:
                    98:9b:b3:f9:e0:cc:98:61:33:9f:0a:3d:9d:54:8b:
                    b2:f8:47:a0:5f:75:b3:1c:1a:a7:58:83:93:6a:04:
                    06:ac:a6:8a:78:f0:35:a3:d8:ff:f7:57:69:54:9b:
                    8e:bd:eb:5e:6f:3c:33:12:44:2d:7b:04:94:cb:ff:
                    87:a2:85:6b:11:dd:e5:89:88:ab:82:42:ba:d5:06:
                    66:7a:fe:2c:c9:98:2a:8e:35:9e:3e:ee:fd:d2:03:
                    a2:89:7d:f3:bb:70:d8:c4:a1:45:fa:fc:63:0d:e1:
                    51:b1:69:3c:8d:f8:3b:a5:02:1c:23:fb:cf:51:6f:
                    24:aa:a3:21:c2:55:fe:34:05:92:1a:e5:12:76:2e:
                    55:46:48:38:8a:5b:73:70:6a:c3:07:4a:a5:19:12:
                    55:29:d7:5c:86:6c:64:61:6b:9e:10:5c:62:a2:2a:
                    58:71:3f:a4:80:c4:59:d4:80:fc:b6:9a:52:71:ac:
                    30:2b:f8:a6:14:91:85:90:f2:57:a8:f1:e0:61:c7:
                    b0:a9:73
                Exponent: 65537 (0x10001)
        X509v3 extensions:
            X509v3 Basic Constraints: 
                CA:FALSE
            X509v3 Key Usage: 
                Non Repudiation, Certificate Sign
            Netscape Comment: 
                OpenSSL Generated Certificate
            X509v3 Subject Key Identifier: 
                43:04:01:54:E6:4A:6E:A2:23:71:CA:33:B4:51:FA:16:3D:69:D2:2F
            X509v3 Authority Key Identifier: 
                43:04:01:54:E6:4A:6E:A2:23:71:CA:33:B4:51:FA:16:3D:69:D2:2F
            X509v3 CRL Distribution Points: 
                Full Name:
                  URI:http://192.168.21.89/rootcrl.pem
    Signature Algorithm: sha1WithRSAEncryption
    Signature Value:
        01:61:71:1d:c0:1d:b0:97:68:82:0c:22:e5:f1:9c:2c:30:7f:
        f5:8e:91:57:ad:9e:23:42:08:41:1d:8b:9a:0d:2a:0d:41:f6:
        55:9c:dc:a5:e7:c6:a9:3d:ab:2e:81:8e:fd:9b:59:c8:ef:ce:
        4c:79:a7:8c:33:7f:34:0a:4c:d9:9e:e8:b5:38:06:97:c5:12:
        17:89:18:74:0d:e1:d3:5c:38:21:c6:98:b4:df:df:d7:bf:5b:
        9a:db:1e:0e:7a:49:c4:9f:07:b5:a5:b4:19:6c:d7:ad:bc:88:
        ee:a2:d2:1c:ff:6c:14:41:77:93:19:be:68:ba:e2:f0:90:aa:
        c3:11:d9:8f:8c:d8:0f:6b:41:61:b5:f0:77:eb:a7:69:d1:30:
        da:49:22:2d:41:c7:2e:fc:10:c3:9a:c2:b2:fd:de:a3:ae:ae:
        4a:87:01:98:b6:00:06:c9:dc:65:9c:68:df:ab:64:9d:1a:08:
        0a:62:b7:38:13:1f:d3:b8:ab:05:f0:48:f3:d2:cd:6a:26:4b:
        8f:c7:85:23:b3:1d:cf:fe:16:fc:d9:21:9d:5a:a7:20:32:d5:
        34:f7:f5:31:a8:cd:b5:15:39:f5:0e:ba:26:1b:b6:54:f8:9f:
        44:60:9f:1f:f5:f5:8d:d6:13:f2:81:29:2c:02:97:9e:ef:f4:
        87:fd:31:53:d9:61:a7:11:83:2b:cb:47:8a:4c:5e:14:b1:0f:
        e8:71:40:0a:7b:15:35:1d:b1:ec:6b:85:12:59:27:01:59:20:
        1c:ef:aa:95:e4:f1:6e:ae:be:d7:44:d7:50:8c:e5:bf:87:87:
        c7:de:b0:70:08:80:50:9d:e3:96:e8:20:d9:b6:c1:70:17:79:
        fd:bb:4e:eb:14:a7:4c:25:dd:28:90:30:a6:df:31:d5:b8:e1:
        1c:bc:74:6b:a5:ac:4e:70:03:74:45:5b:42:94:a1:bd:28:25:
        2d:5c:a0:77:7f:8c:4e:e5:9a:77:c7:04:3c:65:02:42:40:ab:
        ab:ff:a1:73:29:7e:b1:89:06:1d:d5:44:95:a9:96:9d:56:cf:
        ef:30:fe:3c:d4:2e:83:1a:44:0b:f3:4c:c6:ce:b6:bb:22:42:
        9f:04:32:73:b2:ac:d6:4d:8e:36:08:ba:c2:aa:17:85:dc:48:
        8d:f3:ad:72:f5:07:f1:fd:3b:da:03:db:88:e7:5f:d2:bc:c0:
        03:94:26:62:0b:58:86:75:18:90:e2:6a:d2:33:b2:35:91:91:
        d6:a8:06:7c:67:01:0c:ee:71:84:d3:5d:7b:55:67:27:9c:87:
        ce:c8:4f:53:12:5b:7f:27:ad:c7:4f:02:ff:f8:4c:76:03:af:
        44:e5:a9:0d:10:4d:7f:ba
-----BEGIN CERTIFICATE-----
MIIGKzCCBBOgAwIBAgIBNzANBgkqhkiG9w0BAQUFADCBkzELMAkGA1UEBhMCQkEx
CzAJBgNVBAgTAlJTMSEwHwYDVQQKExhFbGVrdHJvdGVobmlja2kgZmFrdWx0ZXQx
DzANBgNVBAsUBkNBX0VURjESMBAGA1UEAxQJQ0FfdGlqZWxvMR4wHAYJKoZIhvcN
AQkBFg9DQUB0aWplbG8uZ21haWwxDzANBgNVBAwTBnNkbGtmajAeFw0yNjAxMTUx
MTEwMjZaFw0zNjAxMTMxMTEwMjZaMF8xCzAJBgNVBAYTAkJBMQswCQYDVQQIEwJS
UzEhMB8GA1UEChMYRWxla3Ryb3RlaG5pY2tpIGZha3VsdGV0MQ8wDQYDVQQLFAZD
QV9FVEYxDzANBgNVBAMTBkRMS1NGSjCCAiIwDQYJKoZIhvcNAQEBBQADggIPADCC
AgoCggIBAM2bSoMVNOT8xxuxymyLKTvhsJ8tPhY1ZRLNPjJBIYcZXpEJT5vxze6w
EcVQyQPNyMPr39ypPANTgFd7bnILV4M6cgYNN0N36e3r5HLvshAiwVoTnxH3JaJo
i9RqQTdXqR3/u9IRHAk1TLz0eVf6ZAMQ+RqB3UIbRwPMi+GKeoKoVn1Zr3ZUN0Lz
VQJYM783XVRfhSnjyNTpcLdo039lIdOOACUKdcsWQvn6mUJLmjdqWTuePQMXWVSE
M9RMEnyV9Ftrrd5ry+YG9ReoveYFY+ptOOOPuyK0xaePt8b8V/BwVqW+OMJ14Bw1
Uw1AgbFAWJNZKKKAXAa2Nj5vjfPGqQWHfmXAdvlxNpbaqaoZdPB6lf9ARH0jt4a4
iX1BVy00IiMpSembn5/MdJ+b86VFs8/8rdE45JCmN2tamJuz+eDMmGEznwo9nVSL
svhHoF91sxwap1iDk2oEBqyminjwNaPY//dXaVSbjr3rXm88MxJELXsElMv/h6KF
axHd5YmIq4JCutUGZnr+LMmYKo41nj7u/dIDool987tw2MShRfr8Yw3hUbFpPI34
O6UCHCP7z1FvJKqjIcJV/jQFkhrlEnYuVUZIOIpbc3BqwwdKpRkSVSnXXIZsZGFr
nhBcYqIqWHE/pIDEWdSA/LaaUnGsMCv4phSRhZDyV6jx4GHHsKlzAgMBAAGjgbww
gbkwCQYDVR0TBAIwADALBgNVHQ8EBAMCAkQwLAYJYIZIAYb4QgENBB8WHU9wZW5T
U0wgR2VuZXJhdGVkIENlcnRpZmljYXRlMB0GA1UdDgQWBBRDBAFU5kpuoiNxyjO0
UfoWPWnSLzAfBgNVHSMEGDAWgBRDBAFU5kpuoiNxyjO0UfoWPWnSLzAxBgNVHR8E
KjAoMCagJKAihiBodHRwOi8vMTkyLjE2OC4yMS44OS9yb290Y3JsLnBlbTANBgkq
hkiG9w0BAQUFAAOCAgEAAWFxHcAdsJdoggwi5fGcLDB/9Y6RV62eI0IIQR2Lmg0q
DUH2VZzcpefGqT2rLoGO/ZtZyO/OTHmnjDN/NApM2Z7otTgGl8USF4kYdA3h01w4
IcaYtN/f179bmtseDnpJxJ8HtaW0GWzXrbyI7qLSHP9sFEF3kxm+aLri8JCqwxHZ
j4zYD2tBYbXwd+unadEw2kkiLUHHLvwQw5rCsv3eo66uSocBmLYABsncZZxo36tk
nRoICmK3OBMf07irBfBI89LNaiZLj8eFI7Mdz/4W/NkhnVqnIDLVNPf1MajNtRU5
9Q66Jhu2VPifRGCfH/X1jdYT8oEpLAKXnu/0h/0xU9lhpxGDK8tHikxeFLEP6HFA
CnsVNR2x7GuFElknAVkgHO+qleTxbq6+10TXUIzlv4eHx96wcAiAUJ3jlugg2bbB
cBd5/btO6xSnTCXdKJAwpt8x1bjhHLx0a6WsTnADdEVbQpShvSglLVygd3+MTuWa
d8cEPGUCQkCrq/+hcyl+sYkGHdVElamWnVbP7zD+PNQugxpEC/NMxs62uyJCnwQy
c7Ks1k2ONgi6wqoXhdxIjfOtcvUH8f072gPbiOdf0rzAA5QmYgtYhnUYkOJq0jOy
NZGR1qgGfGcBDO5xhNNde1VnJ5yHzshPUxJbfyetx08C//hMdgOvROWpDRBNf7o=
-----END CERTIFICATE-----
