Certificate:
    Data:
        Version: 3 (0x2)
        Serial Number: 2 (0x2)
        Signature Algorithm: sha1WithRSAEncryption
        Issuer: C=BA, ST=Republika Srpska, L=Banja Luka, O=Elektrotehnicki fakultet, OU=Katedra za racunarstvo i informatiku, CN=CA/emailAddress=CA@ETF.COM
        Validity
            Not Before: Jan 24 11:19:38 2026 GMT
            Not After : Jan 22 11:19:38 2036 GMT
        Subject: C=BA, ST=Republika Srpska, L=Banja Luka, O=Elektrotehnicki fakultet, OU=Katedra za racunarstvo i informatiku, CN=client2/emailAddress=client2@etf.com
        Subject Public Key Info:
            Public Key Algorithm: rsaEncryption
                Public-Key: (2048 bit)
                Modulus:
                    00:cf:17:f6:05:4c:36:f3:56:8f:39:f6:f1:65:37:
                    65:a7:dc:d3:c2:e6:ba:19:0e:92:ae:0b:bb:02:ed:
                    5f:b3:27:78:a8:eb:7a:8f:22:f4:fe:46:2c:d8:4b:
                    ce:3b:ce:4e:00:8a:2b:cd:9e:d8:b9:c7:74:23:8d:
                    87:a2:ae:80:38:5a:72:c8:5c:af:1c:c8:c0:e4:1b:
                    de:c6:38:ff:dc:c3:f5:29:bf:b4:f8:1b:23:5f:2a:
                    3e:a4:3a:5b:59:f9:f2:a1:3f:80:f2:e3:e6:ea:f5:
                    f1:12:c3:e0:84:a9:61:67:da:57:92:58:21:09:43:
                    75:ca:16:a6:b2:fe:11:32:f7:4c:5b:f9:84:2d:b5:
                    7e:82:8a:85:75:16:96:39:77:c8:58:f5:88:77:40:
                    59:94:39:cd:e8:38:9a:83:7b:2a:a1:0b:11:1b:11:
                    1a:bd:7c:c5:2f:bf:50:c5:28:c9:eb:fd:b3:58:1e:
                    80:2f:06:a2:4c:75:91:8c:dc:d8:fd:61:65:cc:28:
                    09:20:16:30:6c:25:31:a3:89:ac:ca:20:56:e7:50:
                    14:4d:01:86:79:b9:fc:ef:af:96:6e:8e:6c:3a:b1:
                    74:29:b0:38:fb:f3:54:f8:08:7a:de:02:06:65:a6:
                    ae:48:63:1a:3c:2c:ac:8a:a1:f0:8e:24:63:17:cf:
                    94:03
                Exponent: 65537 (0x10001)
        X509v3 extensions:
            X509v3 Basic Constraints: 
                CA:FALSE
            X509v3 Key Usage: 
                Digital Signature, Non Repudiation, Key Encipherment
            Netscape Comment: 
                OpenSSL Generated Certificate
            X509v3 Subject Key Identifier: 
                07:B9:71:48:FA:12:56:65:27:14:74:87:83:ED:C9:C3:E2:F0:08:FE
            X509v3 Authority Key Identifier: 
                4C:0B:06:20:7F:30:FB:1A:4A:1D:92:6B:77:D8:7E:FB:44:AA:BE:E2
    Signature Algorithm: sha1WithRSAEncryption
    Signature Value:
        7b:f7:53:dd:31:bd:6b:d6:3e:d7:15:b7:d4:cd:66:36:77:4f:
        65:b9:44:c1:d9:86:7c:82:07:9d:d8:f1:3f:61:f2:fc:d1:1e:
        05:41:ce:7a:1b:88:4c:67:95:0a:c6:db:87:be:bd:e0:88:0a:
        3a:a1:0a:f0:32:65:29:78:1d:bd:70:99:e1:aa:0b:08:52:cc:
        4e:e2:a0:40:82:59:24:34:69:29:b5:09:e8:3b:33:e5:ea:68:
        1c:67:9f:ef:48:9f:85:38:aa:1f:d3:34:9a:53:e6:97:13:c4:
        7e:34:41:e7:b0:e3:cb:a5:60:5a:ba:e8:e2:47:d1:bb:a7:b1:
        57:ab:be:bb:ca:48:1a:61:1e:d9:ba:6c:25:45:6d:54:82:19:
        d3:70:1d:7b:a4:7d:a7:de:a8:9a:90:5c:be:ff:d1:f8:50:da:
        f8:59:bc:53:f7:09:c7:75:72:18:61:8e:19:53:69:1c:b8:ff:
        0c:72:44:1c:01:ff:7d:0e:e0:cf:ee:5f:5d:ff:be:6e:df:9c:
        49:8e:6b:a8:d4:1b:e9:8e:07:30:69:a9:89:97:ef:0e:18:df:
        06:26:8e:ba:4f:b8:30:49:ed:30:b4:04:a6:d2:d3:3e:5f:a0:
        6a:21:c9:a2:dd:e1:bf:f1:98:38:e7:a3:51:06:44:88:25:25:
        3f:d5:2a:b2
-----BEGIN CERTIFICATE-----
MIIEfzCCA2egAwIBAgIBAjANBgkqhkiG9w0BAQUFADCBtzELMAkGA1UEBhMCQkEx
GTAXBgNVBAgTEFJlcHVibGlrYSBTcnBza2ExEzARBgNVBAcTCkJhbmphIEx1a2Ex
ITAfBgNVBAoTGEVsZWt0cm90ZWhuaWNraSBmYWt1bHRldDEtMCsGA1UECxMkS2F0
ZWRyYSB6YSByYWN1bmFyc3R2byBpIGluZm9ybWF0aWt1MQswCQYDVQQDEwJDQTEZ
MBcGCSqGSIb3DQEJARYKQ0FARVRGLkNPTTAeFw0yNjAxMjQxMTE5MzhaFw0zNjAx
MjIxMTE5MzhaMIHBMQswCQYDVQQGEwJCQTEZMBcGA1UECBMQUmVwdWJsaWthIFNy
cHNrYTETMBEGA1UEBxMKQmFuamEgTHVrYTEhMB8GA1UEChMYRWxla3Ryb3RlaG5p
Y2tpIGZha3VsdGV0MS0wKwYDVQQLEyRLYXRlZHJhIHphIHJhY3VuYXJzdHZvIGkg
aW5mb3JtYXRpa3UxEDAOBgNVBAMTB2NsaWVudDIxHjAcBgkqhkiG9w0BCQEWD2Ns
aWVudDJAZXRmLmNvbTCCASIwDQYJKoZIhvcNAQEBBQADggEPADCCAQoCggEBAM8X
9gVMNvNWjzn28WU3Zafc08LmuhkOkq4LuwLtX7MneKjreo8i9P5GLNhLzjvOTgCK
K82e2LnHdCONh6KugDhacshcrxzIwOQb3sY4/9zD9Sm/tPgbI18qPqQ6W1n58qE/
gPLj5ur18RLD4ISpYWfaV5JYIQlDdcoWprL+ETL3TFv5hC21foKKhXUWljl3yFj1
iHdAWZQ5zeg4moN7KqELERsRGr18xS+/UMUoyev9s1gegC8Gokx1kYzc2P1hZcwo
CSAWMGwlMaOJrMogVudQFE0Bhnm5/O+vlm6ObDqxdCmwOPvzVPgIet4CBmWmrkhj
GjwsrIqh8I4kYxfPlAMCAwEAAaOBiTCBhjAJBgNVHRMEAjAAMAsGA1UdDwQEAwIF
4DAsBglghkgBhvhCAQ0EHxYdT3BlblNTTCBHZW5lcmF0ZWQgQ2VydGlmaWNhdGUw
HQYDVR0OBBYEFAe5cUj6ElZlJxR0h4PtycPi8Aj+MB8GA1UdIwQYMBaAFEwLBiB/
MPsaSh2Sa3fYfvtEqr7iMA0GCSqGSIb3DQEBBQUAA4IBAQB791PdMb1r1j7XFbfU
zWY2d09luUTB2YZ8gged2PE/YfL80R4FQc56G4hMZ5UKxtuHvr3giAo6oQrwMmUp
eB29cJnhqgsIUsxO4qBAglkkNGkptQnoOzPl6mgcZ5/vSJ+FOKof0zSaU+aXE8R+
NEHnsOPLpWBauujiR9G7p7FXq767ykgaYR7ZumwlRW1UghnTcB17pH2n3qiakFy+
/9H4UNr4WbxT9wnHdXIYYY4ZU2kcuP8MckQcAf99DuDP7l9d/75u35xJjmuo1Bvp
jgcwaamJl+8OGN8GJo66T7gwSe0wtASm0tM+X6BqIcmi3eG/8Zg456NRBkSIJSU/
1Sqy
-----END CERTIFICATE-----
