Certificate:
    Data:
        Version: 3 (0x2)
        Serial Number: 1 (0x1)
        Signature Algorithm: sha1WithRSAEncryption
        Issuer: C=BA, ST=RS, L=Banja Luka, O=Elektrotehnicki fakultet, OU=ETF, CN=KDSJFS/emailAddress=LSKDJFKDSF
        Validity
            Not Before: Jan 17 10:36:39 2026 GMT
            Not After : Jan 22 10:36:39 2026 GMT
        Subject: C=BA, ST=RS, O=Elektrotehnicki fakultet, OU=ETF, CN=DSKFJSD/emailAddress=SKDFJDSF
        Subject Public Key Info:
            Public Key Algorithm: rsaEncryption
                Public-Key: (2048 bit)
                Modulus:
                    00:a8:f7:77:87:f4:64:29:61:88:84:c6:d6:b7:3c:
                    f5:29:ca:29:f1:5f:e2:37:44:18:3c:d7:8f:3c:fb:
                    9a:a5:39:4f:f6:9e:64:f9:68:69:90:2d:9a:16:59:
                    58:77:cd:d1:a2:5c:47:7a:ba:a9:f8:e0:82:99:f0:
                    9b:07:b8:dc:10:40:d8:db:dd:2f:57:8c:18:d2:19:
                    9b:17:44:da:01:4a:9a:6d:f4:11:5a:53:32:37:81:
                    73:38:f6:91:fd:90:79:4d:d8:e4:63:0e:be:57:cf:
                    46:f5:f1:e3:91:24:c1:af:7f:9e:64:b4:42:47:fb:
                    6c:a8:62:cf:50:96:a5:01:63:7d:b2:05:2c:6d:fc:
                    64:82:cf:b8:65:c5:a6:66:25:2b:b8:fa:d4:cc:94:
                    e8:23:24:55:f8:2b:ac:b1:1a:2c:56:ab:67:96:18:
                    1b:1e:85:f8:82:ae:e2:59:fd:c8:a9:da:58:eb:0f:
                    f6:5b:8c:6e:52:3b:ee:cc:41:65:11:06:85:96:c4:
                    e4:96:8f:1c:62:94:43:7e:85:79:b4:c9:80:24:d8:
                    07:78:06:1b:34:a5:7a:e8:7a:43:71:a2:82:4f:0d:
                    d9:27:5c:7b:91:94:b6:92:78:7c:ca:22:32:a4:74:
                    96:70:05:b4:be:38:3c:12:c2:40:25:ef:21:1c:05:
                    b6:e7
                Exponent: 65537 (0x10001)
        X509v3 extensions:
            X509v3 Basic Constraints: 
                CA:FALSE
            X509v3 Key Usage: 
                Digital Signature
            X509v3 Extended Key Usage: 
                TLS Web Client Authentication
            Netscape Comment: 
                OpenSSL Generated Certificate
            X509v3 Subject Key Identifier: 
                34:70:3C:6A:3D:27:F3:76:7D:05:BC:F5:47:78:B9:D9:F3:8E:24:95
            X509v3 Authority Key Identifier: 
                4E:15:CD:09:FA:5A:C6:E7:32:D0:30:57:55:F2:82:5C:8C:C2:BC:89
            X509v3 CRL Distribution Points: 
                Full Name:
                  URI:http://192.168.21.89/rootcrl.pem
    Signature Algorithm: sha1WithRSAEncryption
    Signature Value:
        80:02:53:d8:a2:3c:9f:02:0b:42:a3:32:d5:a7:aa:c3:80:9b:
        1e:f9:bc:3f:3f:d3:7d:26:53:85:f4:be:5a:42:13:5d:8c:26:
        d4:7d:b6:39:8c:91:40:72:6d:26:d5:88:c3:83:e0:5c:d4:22:
        59:b8:a4:14:db:78:ad:55:1c:da:32:d0:61:06:f1:43:7b:0a:
        61:f8:36:ae:4f:34:48:c9:33:5f:71:4a:ec:92:e0:2f:9f:a0:
        b2:a1:5e:df:fb:8a:c1:49:aa:a4:1f:dd:44:1f:76:7f:ad:cd:
        f7:6d:a0:51:7e:ed:d9:44:20:c5:5e:59:20:15:2d:86:e0:86:
        17:3e:e3:af:87:35:b4:5c:ba:25:cd:64:9f:fd:c5:b0:99:38:
        1e:0d:75:0b:e5:fa:4a:5a:43:8f:c7:4f:7c:8a:be:51:fe:9f:
        6a:40:05:b4:1f:34:18:63:07:8e:88:60:73:ce:2a:2a:0b:8a:
        b5:e8:0d:4a:d0:88:80:e1:7d:f0:19:8f:cd:6e:00:07:71:aa:
        24:aa:80:3d:0b:66:0d:97:2a:22:f4:45:ba:58:fc:87:4b:47:
        b5:bd:be:07:fa:95:71:de:4d:c3:ed:bd:6c:42:74:c3:dd:fd:
        a4:bd:e4:d0:37:5f:c0:b6:d0:f3:b2:97:62:c1:ca:5d:8c:cd:
        ce:24:65:b7
-----BEGIN CERTIFICATE-----
MIIEUDCCAzigAwIBAgIBATANBgkqhkiG9w0BAQUFADCBjDELMAkGA1UEBhMCQkEx
CzAJBgNVBAgTAlJTMRMwEQYDVQQHEwpCYW5qYSBMdWthMSEwHwYDVQQKExhFbGVr
dHJvdGVobmlja2kgZmFrdWx0ZXQxDDAKBgNVBAsTA0VURjEPMA0GA1UEAxMGS0RT
SkZTMRkwFwYJKoZIhvcNAQkBFgpMU0tESkZLRFNGMB4XDTI2MDExNzEwMzYzOVoX
DTI2MDEyMjEwMzYzOVowdjELMAkGA1UEBhMCQkExCzAJBgNVBAgTAlJTMSEwHwYD
VQQKExhFbGVrdHJvdGVobmlja2kgZmFrdWx0ZXQxDDAKBgNVBAsTA0VURjEQMA4G
A1UEAxMHRFNLRkpTRDEXMBUGCSqGSIb3DQEJARYIU0tERkpEU0YwggEiMA0GCSqG
SIb3DQEBAQUAA4IBDwAwggEKAoIBAQCo93eH9GQpYYiExta3PPUpyinxX+I3RBg8
1488+5qlOU/2nmT5aGmQLZoWWVh3zdGiXEd6uqn44IKZ8JsHuNwQQNjb3S9XjBjS
GZsXRNoBSppt9BFaUzI3gXM49pH9kHlN2ORjDr5Xz0b18eORJMGvf55ktEJH+2yo
Ys9QlqUBY32yBSxt/GSCz7hlxaZmJSu4+tTMlOgjJFX4K6yxGixWq2eWGBsehfiC
ruJZ/cip2ljrD/ZbjG5SO+7MQWURBoWWxOSWjxxilEN+hXm0yYAk2Ad4Bhs0pXro
ekNxooJPDdknXHuRlLaSeHzKIjKkdJZwBbS+ODwSwkAl7yEcBbbnAgMBAAGjgdEw
gc4wCQYDVR0TBAIwADALBgNVHQ8EBAMCB4AwEwYDVR0lBAwwCgYIKwYBBQUHAwIw
LAYJYIZIAYb4QgENBB8WHU9wZW5TU0wgR2VuZXJhdGVkIENlcnRpZmljYXRlMB0G
A1UdDgQWBBQ0cDxqPSfzdn0FvPVHeLnZ844klTAfBgNVHSMEGDAWgBROFc0J+lrG
5zLQMFdV8oJcjMK8iTAxBgNVHR8EKjAoMCagJKAihiBodHRwOi8vMTkyLjE2OC4y
MS44OS9yb290Y3JsLnBlbTANBgkqhkiG9w0BAQUFAAOCAQEAgAJT2KI8nwILQqMy
1aeqw4CbHvm8Pz/TfSZThfS+WkITXYwm1H22OYyRQHJtJtWIw4PgXNQiWbikFNt4
rVUc2jLQYQbxQ3sKYfg2rk80SMkzX3FK7JLgL5+gsqFe3/uKwUmqpB/dRB92f63N
922gUX7t2UQgxV5ZIBUthuCGFz7jr4c1tFy6Jc1kn/3FsJk4Hg11C+X6SlpDj8dP
fIq+Uf6fakAFtB80GGMHjohgc84qKguKtegNStCIgOF98BmPzW4AB3GqJKqAPQtm
DZcqIvRFulj8h0tHtb2+B/qVcd5Nw+29bEJ0w939pL3k0DdfwLbQ87KXYsHKXYzN
ziRltw==
-----END CERTIFICATE-----
