Certificate:
    Data:
        Version: 3 (0x2)
        Serial Number: 2 (0x2)
        Signature Algorithm: sha1WithRSAEncryption
        Issuer: C=BA, ST=RS, L=Banja Luka, O=Elektrotehnicki fakultet, OU=ETF, CN=KDSJFS/emailAddress=LSKDJFKDSF
        Validity
            Not Before: Jan 17 10:36:58 2026 GMT
            Not After : Jan 22 10:36:58 2026 GMT
        Subject: C=BA, ST=RS, O=Elektrotehnicki fakultet, OU=ETF, CN=ksdjflksdfsd/emailAddress=lksdjfkdsjflkdsf
        Subject Public Key Info:
            Public Key Algorithm: rsaEncryption
                Public-Key: (2048 bit)
                Modulus:
                    00:d6:65:73:1d:fe:8e:7e:a4:06:c8:9a:0d:5b:48:
                    cd:cb:1a:8e:5c:05:cc:38:6c:ba:fe:39:80:bc:b2:
                    1a:a2:85:49:a5:d2:d7:31:d6:ae:01:3b:1a:3c:99:
                    32:b1:da:14:00:b7:7a:50:51:03:05:7d:57:af:a7:
                    e8:95:86:79:28:8d:94:54:89:47:d0:4d:36:f7:10:
                    9f:02:b4:41:f2:42:e0:67:b0:34:2c:55:30:02:ce:
                    0a:03:00:36:2f:5d:ec:5e:10:0b:f0:fe:7f:4d:06:
                    f8:ad:70:49:4f:b8:38:de:20:a1:b3:64:bf:43:82:
                    3d:d6:fe:dd:37:fa:81:fe:d0:67:ed:e9:13:3f:0b:
                    63:0a:70:38:e5:a8:c4:6a:f9:65:b3:6c:a4:d0:4b:
                    70:cd:15:de:f7:d8:3a:f7:46:ea:d8:b8:85:b3:db:
                    1a:af:95:9e:72:86:dc:37:f4:a1:0b:12:40:b1:0d:
                    bc:7f:1b:f5:25:4f:2a:84:72:f5:c9:48:20:e4:bd:
                    89:90:b4:cd:d4:b6:91:33:e8:b9:df:da:fd:55:bb:
                    bf:24:be:cb:d2:cb:b9:44:03:33:3d:67:aa:ee:ca:
                    16:e8:3d:31:ec:a5:28:a0:c8:f1:9d:f8:28:2b:7e:
                    1a:85:df:62:05:c5:8d:2a:94:fd:53:da:fa:0f:1d:
                    e7:11
                Exponent: 65537 (0x10001)
        X509v3 extensions:
            X509v3 Basic Constraints: 
                CA:FALSE
            X509v3 Key Usage: 
                Digital Signature
            X509v3 Extended Key Usage: 
                TLS Web Client Authentication
            Netscape Comment: 
                OpenSSL Generated Certificate
            X509v3 Subject Key Identifier: 
                49:F4:69:60:DA:79:D6:F2:D9:51:9F:E5:B9:3F:99:B0:16:5A:7A:C3
            X509v3 Authority Key Identifier: 
                4E:15:CD:09:FA:5A:C6:E7:32:D0:30:57:55:F2:82:5C:8C:C2:BC:89
            X509v3 CRL Distribution Points: 
                Full Name:
                  URI:http://192.168.21.89/rootcrl.pem
    Signature Algorithm: sha1WithRSAEncryption
    Signature Value:
        2f:49:65:96:ca:ff:b6:72:81:11:32:2b:8a:dd:1a:c9:0d:c1:
        9d:3a:47:3c:13:d2:4e:7a:48:2f:8b:11:b1:86:a5:3e:f9:ba:
        05:c7:24:73:c9:df:e6:ff:8b:86:ed:c4:4e:d0:ab:2f:f8:6e:
        6c:e5:fa:6c:47:d9:5f:3a:89:c7:49:a2:89:91:98:d8:d9:39:
        25:94:84:97:01:d5:9e:12:36:d2:08:a4:c9:c7:84:d9:9a:fe:
        d6:c8:cc:e6:d1:70:cf:89:cc:83:e4:70:50:48:39:22:c6:a5:
        d9:17:de:82:fa:9d:f5:8b:59:00:45:55:d1:84:12:06:c8:0c:
        7c:f5:e3:2a:2e:bc:e1:c1:3a:0a:62:3f:da:e4:9e:0f:9e:66:
        e5:84:19:a5:e7:95:76:ae:1c:29:0a:a5:80:3e:8e:b0:16:59:
        9a:98:b4:cb:c5:dc:23:a8:0b:2d:20:21:9f:a1:60:50:10:d0:
        2c:de:4c:f2:64:35:3d:12:1f:ad:eb:3d:00:77:8a:0d:b3:d0:
        f8:ec:2a:26:e6:5e:81:ea:f1:0f:c5:25:74:c9:2c:f6:89:44:
        b7:b5:f5:85:8a:c8:1e:3d:67:ec:c7:7e:2b:bf:57:46:de:6b:
        f2:5f:c2:48:38:ed:15:b8:7b:7c:38:68:b6:f4:ec:44:c8:8b:
        26:19:3f:77
-----BEGIN CERTIFICATE-----
MIIEXjCCA0agAwIBAgIBAjANBgkqhkiG9w0BAQUFADCBjDELMAkGA1UEBhMCQkEx
CzAJBgNVBAgTAlJTMRMwEQYDVQQHEwpCYW5qYSBMdWthMSEwHwYDVQQKExhFbGVr
dHJvdGVobmlja2kgZmFrdWx0ZXQxDDAKBgNVBAsTA0VURjEPMA0GA1UEAxMGS0RT
SkZTMRkwFwYJKoZIhvcNAQkBFgpMU0tESkZLRFNGMB4XDTI2MDExNzEwMzY1OFoX
DTI2MDEyMjEwMzY1OFowgYMxCzAJBgNVBAYTAkJBMQswCQYDVQQIEwJSUzEhMB8G
A1UEChMYRWxla3Ryb3RlaG5pY2tpIGZha3VsdGV0MQwwCgYDVQQLEwNFVEYxFTAT
BgNVBAMTDGtzZGpmbGtzZGZzZDEfMB0GCSqGSIb3DQEJARYQbGtzZGpma2RzamZs
a2RzZjCCASIwDQYJKoZIhvcNAQEBBQADggEPADCCAQoCggEBANZlcx3+jn6kBsia
DVtIzcsajlwFzDhsuv45gLyyGqKFSaXS1zHWrgE7GjyZMrHaFAC3elBRAwV9V6+n
6JWGeSiNlFSJR9BNNvcQnwK0QfJC4GewNCxVMALOCgMANi9d7F4QC/D+f00G+K1w
SU+4ON4gobNkv0OCPdb+3Tf6gf7QZ+3pEz8LYwpwOOWoxGr5ZbNspNBLcM0V3vfY
OvdG6ti4hbPbGq+VnnKG3Df0oQsSQLENvH8b9SVPKoRy9clIIOS9iZC0zdS2kTPo
ud/a/VW7vyS+y9LLuUQDMz1nqu7KFug9MeylKKDI8Z34KCt+GoXfYgXFjSqU/VPa
+g8d5xECAwEAAaOB0TCBzjAJBgNVHRMEAjAAMAsGA1UdDwQEAwIHgDATBgNVHSUE
DDAKBggrBgEFBQcDAjAsBglghkgBhvhCAQ0EHxYdT3BlblNTTCBHZW5lcmF0ZWQg
Q2VydGlmaWNhdGUwHQYDVR0OBBYEFEn0aWDaedby2VGf5bk/mbAWWnrDMB8GA1Ud
IwQYMBaAFE4VzQn6WsbnMtAwV1XyglyMwryJMDEGA1UdHwQqMCgwJqAkoCKGIGh0
dHA6Ly8xOTIuMTY4LjIxLjg5L3Jvb3RjcmwucGVtMA0GCSqGSIb3DQEBBQUAA4IB
AQAvSWWWyv+2coERMiuK3RrJDcGdOkc8E9JOekgvixGxhqU++boFxyRzyd/m/4uG
7cRO0Ksv+G5s5fpsR9lfOonHSaKJkZjY2TkllISXAdWeEjbSCKTJx4TZmv7WyMzm
0XDPicyD5HBQSDkixqXZF96C+p31i1kARVXRhBIGyAx89eMqLrzhwToKYj/a5J4P
nmblhBml55V2rhwpCqWAPo6wFlmamLTLxdwjqAstICGfoWBQENAs3kzyZDU9Eh+t
6z0Ad4oNs9D47Com5l6B6vEPxSV0ySz2iUS3tfWFisgePWfsx34rv1dG3mvyX8JI
OO0VuHt8OGi29OxEyIsmGT93
-----END CERTIFICATE-----
